(dp1
S'output'
p2
S"<type 'exceptions.AttributeError'> 'Table' object has no attribute 'accessories_id'"
p3
sS'layer'
p4
S'/home/peace/web2py/applications/monitor/models/dbsetup.py'
p5
sS'code'
p6
S'from datetime import datetime\nfrom gluon.contrib.appconfig import AppConfig\nimport os\n\n# myconf = AppConfig(reload=True)\n\n\n# device_brand\ndb.define_table(\'device_brand\',\n\tField(\'name\', \'string\', requires=[IS_NOT_EMPTY()], label="Brand"),\n\tField(\'is_active\', \'boolean\', default=True, label="Active"),\n\tField(\'created_on\', \'datetime\', default=request.now,\n\t\t\treadable=True, writable=False),\n\tField(\'created_by\', \'reference auth_user\', default=auth.user_id,\n\t\t\treadable=True, writable=False),\n\tField(\'modified_on\', \'datetime\', update=request.now,\n\t\t\treadable=True, writable=False),\n\tField(\'modified_by\', \'reference auth_user\', update=auth.user_id,\n\t\t\treadable=True, writable=False),\n\tformat=\'%(name)s\'\n)\n# device_model\ndb.define_table(\'device_model\',\n\tField(\'name\', \'string\',requires=[IS_NOT_EMPTY()], label="Model"),\n\tField(\'brand_id\', \'reference device_brand\',\n\t\trequires=[IS_NOT_EMPTY()], label="Brand"),\n\tField(\'is_active\', \'boolean\', default=True, label="Active"),\n\tField(\'created_on\', \'datetime\', default=request.now,\n\t\t\treadable=True, writable=False),\n\tField(\'created_by\', \'reference auth_user\', default=auth.user_id,\n\t\t\treadable=True, writable=False),\n\tField(\'modified_on\', \'datetime\', update=request.now,\n\t\t\treadable=True, writable=False),\n\tField(\'modified_by\', \'reference auth_user\', update=auth.user_id,\n\t\t\treadable=True, writable=False),\n\tformat = \'%(name)s\')\n\ndb.device_model.brand_id.requires=IS_IN_DB(db(db.device_brand.is_active == True), db.device_brand.id, \'%(name)s\')\n\n\n# device_type\ndb.define_table(\'device_type\',\n\tField(\'name\', \'string\', requires=[IS_NOT_EMPTY()], label="Device Type"),\n\tField(\'device_code\', \'string\', requires=[IS_NOT_EMPTY()], label="Prefix Code"),\n\tField(\'is_active\', \'boolean\', default=True, label="Active"),\n\tField(\'created_on\', \'datetime\', default=request.now,\n\t\t\treadable=True, writable=False),\n\tField(\'created_by\', \'reference auth_user\', default=auth.user_id,\n\t\t\treadable=True, writable=False),\n\tField(\'modified_on\', \'datetime\', update=request.now,\n\t\t\treadable=True, writable=False),\n\tField(\'modified_by\', \'reference auth_user\', update=auth.user_id,\n\t\t\treadable=True, writable=False),\n\tformat=\'%(name)s\'\n)\n\n# device_type\ndb.define_table(\'os_type\',\n\tField(\'name\', \'string\', requires=[IS_NOT_EMPTY()], label="OS Name"),\n\tField(\'is_active\', \'boolean\', default=True, label="Active"),\n\tField(\'created_on\', \'datetime\', default=request.now,\n\t\t\treadable=True, writable=False),\n\tField(\'created_by\', \'reference auth_user\', default=auth.user_id,\n\t\t\treadable=True, writable=False),\n\tField(\'modified_on\', \'datetime\', update=request.now,\n\t\t\treadable=True, writable=False),\n\tField(\'modified_by\', \'reference auth_user\', update=auth.user_id,\n\t\t\treadable=True, writable=False),\n\tformat=\'%(name)s\'\n)\n\n# apps_type\ndb.define_table(\'apps_type\',\n\tField(\'name\', \'string\', requires=[IS_NOT_EMPTY()], label="App Type"),\n\tField(\'is_active\', \'boolean\', default=True, label="Active"),\n\tField(\'created_on\', \'datetime\', default=request.now,\n\t\t\treadable=True, writable=False),\n\tField(\'created_by\', \'reference auth_user\', default=auth.user_id,\n\t\t\treadable=True, writable=False),\n\tField(\'modified_on\', \'datetime\', update=request.now,\n\t\t\treadable=True, writable=False),\n\tField(\'modified_by\', \'reference auth_user\', update=auth.user_id,\n\t\t\treadable=True, writable=False),\n\tformat=\'%(name)s\'\n)\n\n\n# apps\ndb.define_table(\'apps\',\n\tField(\'name\', \'string\', requires=[IS_NOT_EMPTY()], label="App Name"),\n\tField(\'is_active\', \'boolean\', default=True, label="Active"),\n\tField(\'created_on\', \'datetime\', default=request.now,\n\t\t\treadable=True, writable=False),\n\tField(\'created_by\', \'reference auth_user\', default=auth.user_id,\n\t\t\treadable=True, writable=False),\n\tField(\'modified_on\', \'datetime\', update=request.now,\n\t\t\treadable=True, writable=False),\n\tField(\'modified_by\', \'reference auth_user\', update=auth.user_id,\n\t\t\treadable=True, writable=False),\n\tformat=\'%(name)s\'\n)\n\n\n# app_assign\ndb.define_table(\'app_assign\',\n\tField(\'name\', \'string\', requires=[IS_NOT_EMPTY()], label="App Name"),\n\tField(\'app_type_id\', \'reference apps_type\', label="Type"),\n\tField(\'is_active\', \'boolean\', default=True, label="Active"),\n\tField(\'created_on\', \'datetime\', default=request.now,\n\t\t\treadable=True, writable=False),\n\tField(\'created_by\', \'reference auth_user\', default=auth.user_id,\n\t\t\treadable=True, writable=False),\n\tField(\'modified_on\', \'datetime\', update=request.now,\n\t\t\treadable=True, writable=False),\n\tField(\'modified_by\', \'reference auth_user\', update=auth.user_id,\n\t\t\treadable=True, writable=False),\n\n\tformat=\'%(name)s\'\n)\n\ndb.app_assign.app_type_id.requires=IS_IN_DB(db(db.apps_type.is_active == True), db.apps_type.id, \'%(name)s\')\n\n#app_assign_detail\ndb.define_table(\'app_assign_detail\',\n\tField(\'app_assign_id\', \'reference app_assign\', requires=[IS_NOT_EMPTY()], label="Assign ID"),\n\tField(\'apps_id\', \'reference apps\', requires=[IS_NOT_EMPTY()], label="Application Name")\n)\n\ndb.app_assign_detail.apps_id.requires=IS_IN_DB(db(db.apps.is_active == True), db.apps.id, \'%(name)s\')\n\n# email_type\ndb.define_table(\'email_type\',\n\tField(\'email_name\', \'string\', requires=[IS_NOT_EMPTY()], label="Email Type"),\n\tField(\'is_active\', \'boolean\', default=True, label="Active"),\n\tField(\'created_on\', \'datetime\', default=request.now,\n\t\t\treadable=True, writable=False),\n\tField(\'created_by\', \'reference auth_user\', default=auth.user_id,\n\t\t\treadable=True, writable=False),\n\tField(\'modified_on\', \'datetime\', update=request.now,\n\t\t\treadable=True, writable=False),\n\tField(\'modified_by\', \'reference auth_user\', update=auth.user_id,\n\t\t\treadable=True, writable=False),\n\tformat=\'%(email_name)s\')\n\n# license_type\ndb.define_table(\'license_type\',\n\tField(\'license_name\', \'string\', requires=[IS_NOT_EMPTY()], label="License Type"),\n\tField(\'is_active\', \'boolean\', default=True, label="Active"),\n\tField(\'created_on\', \'datetime\', default=request.now,\n\t\t\treadable=True, writable=False),\n\tField(\'created_by\', \'reference auth_user\', default=auth.user_id,\n\t\t\treadable=True, writable=False),\n\tField(\'modified_on\', \'datetime\', update=request.now,\n\t\t\treadable=True, writable=False),\n\tField(\'modified_by\', \'reference auth_user\', update=auth.user_id,\n\t\t\treadable=True, writable=False),\n\tformat=\'%(license_name)s\')\n\n# account_type\ndb.define_table(\'account_type\',\n\tField(\'account_name\', \'string\', requires=[IS_NOT_EMPTY()], label="Type Name"),\n\tField(\'is_active\', \'boolean\', default=True, label="Active"),\n\tField(\'created_on\', \'datetime\', default=request.now,\n\t\t\treadable=True, writable=False),\n\tField(\'created_by\', \'reference auth_user\', default=auth.user_id,\n\t\t\treadable=True, writable=False),\n\tField(\'modified_on\', \'datetime\', update=request.now,\n\t\t\treadable=True, writable=False),\n\tField(\'modified_by\', \'reference auth_user\', update=auth.user_id,\n\t\t\treadable=True, writable=False),\n\tformat=\'%(account_name)s\')\n\n## email\ndb.define_table(\'email_account\',\n\tField(\'username\', \'string\', requires=[IS_NOT_EMPTY()], label="Email Address"),\n\tField(\'default_password\', \'string\', label="Default Password"),\n\tField(\'recovery_email\', \'string\', label="Recovery Email"),\n\tField(\'recovery_phone\', \'string\', label="Recovery Phone"),\n\tField(\'email_type_id\', \'reference email_type\', requires=[IS_NOT_EMPTY()], label="Email Type"),\n\tField(\'account_type_id\', \'reference account_type\', requires=[IS_NOT_EMPTY()], label="User Type"),\n\tField(\'license_type_id\', \'reference license_type\', requires=[IS_NOT_EMPTY()], label="License Type"),\n\tField(\'is_used\', \'boolean\', default=False, label="Used"),\n\tField(\'is_active\', \'boolean\', default=True, label="Active"),\n\tField(\'created_on\', \'datetime\', default=request.now,\n\t\t\treadable=True, writable=False),\n\tField(\'created_by\', \'reference auth_user\', default=auth.user_id,\n\t\t\treadable=True, writable=False),\n\tField(\'modified_on\', \'datetime\', update=request.now,\n\t\t\treadable=True, writable=False),\n\tField(\'modified_by\', \'reference auth_user\', update=auth.user_id,\n\t\t\treadable=True, writable=False),\n\tformat=\'%(username)s\'\n)\n\ndb.email_account.email_type_id.requires=IS_IN_DB(db(db.email_type.is_active == True), db.email_type.id, \'%(email_name)s\')\ndb.email_account.account_type_id.requires=IS_IN_DB(db(db.account_type.is_active == True), db.account_type.id, \'%(account_name)s\')\ndb.email_account.license_type_id.requires=IS_IN_DB(db(db.license_type.is_active == True), db.license_type.id, \'%(license_name)s\')\n\n# department\ndb.define_table(\'department\',\n\tField(\'name\', \'string\', requires=[IS_NOT_EMPTY()], label="Department Name"),\n\tField(\'is_active\', \'boolean\', default=True, label="Active"),\n\tField(\'created_on\', \'datetime\', default=request.now,\n\t\t\treadable=True, writable=False),\n\tField(\'created_by\', \'reference auth_user\', default=auth.user_id,\n\t\t\treadable=True, writable=False),\n\tField(\'modified_on\', \'datetime\', update=request.now,\n\t\t\treadable=True, writable=False),\n\tField(\'modified_by\', \'reference auth_user\', update=auth.user_id,\n\t\t\treadable=True, writable=False),\n\tformat=\'%(name)s\'\n)\n\n## employee\ndb.define_table(\'employee\',\n\tField(\'code\', \'string\', requires=[IS_NOT_EMPTY()], label="Code"),\n\tField(\'name\', \'string\', requires=[IS_NOT_EMPTY()], label="Name"),\n\tField(\'job_title\', \'string\', label="Job Title"),\n\tField(\'department_id\', \'reference department\', requires=[IS_NOT_EMPTY()], label="Department"),\n\tField(\'phone\',  requires=[IS_NOT_EMPTY()], label="Phone"),\n\tField(\'is_active\', \'boolean\', default=True, label="Active"),\n\tField(\'created_on\', \'datetime\', default=request.now,\n\t\t\treadable=True, writable=False),\n\tField(\'created_by\', \'reference auth_user\', default=auth.user_id,\n\t\t\treadable=True, writable=False),\n\tField(\'modified_on\', \'datetime\', update=request.now,\n\t\t\treadable=True, writable=False),\n\tField(\'modified_by\', \'reference auth_user\', update=auth.user_id,\n\t\t\treadable=True, writable=False),\n\tformat=\'%(name)s\')\n\ndb.employee.department_id.requires=IS_IN_DB(db(db.department.is_active == True),db.department.id, \'%(name)s\')\n\n\n# location\ndb.define_table(\'location_plant\',\n\tField(\'prefix_plant\', \'string\', requires=[IS_NOT_EMPTY()], label="Prefix Code"),\n\tField(\'name\', \'string\', requires=[IS_NOT_EMPTY()], label="Location/Plant"),\n\tField(\'is_active\', \'boolean\', default=True, label="Active"),\n\tField(\'created_on\', \'datetime\', default=request.now,\n\t\t\treadable=True, writable=False),\n\tField(\'created_by\', \'reference auth_user\', default=auth.user_id,\n\t\t\treadable=True, writable=False),\n\tField(\'modified_on\', \'datetime\', update=request.now,\n\t\t\treadable=True, writable=False),\n\tField(\'modified_by\', \'reference auth_user\', update=auth.user_id,\n\t\t\treadable=True, writable=False),\n\tformat=\'%(name)s\'\n)\n\n\n# sim_brand\ndb.define_table(\'sim_brand\',\n\tField(\'name\', \'string\', requires=[IS_NOT_EMPTY()], label="SIM Brand"),\n\tField(\'is_active\', \'boolean\', default=True, label="Active"),\n\tField(\'created_on\', \'datetime\', default=request.now,\n\t\t\treadable=True, writable=False),\n\tField(\'created_by\', \'reference auth_user\', default=auth.user_id,\n\t\t\treadable=True, writable=False),\n\tField(\'modified_on\', \'datetime\', update=request.now,\n\t\t\treadable=True, writable=False),\n\tField(\'modified_by\', \'reference auth_user\', update=auth.user_id,\n\t\t\treadable=True, writable=False),\n\tformat=\'%(name)s\'\n)\n\n\n# sim_plan\ndb.define_table(\'sim_plan\',\n\tField(\'name\', \'string\', requires=[IS_NOT_EMPTY()], label="SIM Plan"),\n\tField(\'is_active\', \'boolean\', default=True, label="Active"),\n\tField(\'created_on\', \'datetime\', default=request.now,\n\t\t\treadable=True, writable=False),\n\tField(\'created_by\', \'reference auth_user\', default=auth.user_id,\n\t\t\treadable=True, writable=False),\n\tField(\'modified_on\', \'datetime\', update=request.now,\n\t\t\treadable=True, writable=False),\n\tField(\'modified_by\', \'reference auth_user\', update=auth.user_id,\n\t\t\treadable=True, writable=False),\n\tformat=\'%(name)s\'\n)\n\n##sim\ndb.define_table(\'sim\',\n\tField(\'sim_number\', \'string\', requires=[IS_NOT_EMPTY()],label="Phone Number"),\n\tField(\'brand_type_id\', \'reference sim_brand\', requires=[IS_NOT_EMPTY()], label="Operator"),\n\tField(\'plan_type_id\', \'reference sim_plan\', requires=[IS_NOT_EMPTY()], label="Plan"),\n\tField(\'is_used\', \'boolean\', default=False, label="Used"),\n\tField(\'is_active\', \'boolean\', default=True, label="Active"),\n\tField(\'created_on\', \'datetime\', default=request.now,\n\t\t\treadable=True, writable=False),\n\tField(\'created_by\', \'reference auth_user\', default=auth.user_id,\n\t\t\treadable=True, writable=False),\n\tField(\'modified_on\', \'datetime\', update=request.now,\n\t\t\treadable=True, writable=False),\n\tField(\'modified_by\', \'reference auth_user\', update=auth.user_id,\n\t\t\treadable=True, writable=False),\n\tformat=\'%(sim_number)s\'\n)\n\ndb.sim.brand_type_id.requires=IS_IN_DB(db(db.sim_brand.is_active == True),db.sim_brand.id, \'%(name)s\')\ndb.sim.plan_type_id.requires=IS_IN_DB(db(db.sim_plan.is_active == True),db.sim_plan.id, \'%(name)s\')\n\n\n\n## device\ndb.define_table(\'device\',\n\tField(\'name\', \'string\', requires=[IS_NOT_EMPTY()], label="Name"),\n\tField(\'device_brand_id\', \'reference device_brand\', requires=[IS_NOT_EMPTY()], label="Brand"),\n\tField(\'device_model_id\', \'reference device_model\', requires=[\n\tIS_IN_DB(db(db.device_model.is_active == True).select(db.device_model.id),\n\tdb.device_model.id, \'%(name)s\'),\n\tIS_NOT_EMPTY()], label="Model"),\n\tField(\'device_type_id\', \'reference device_type\', requires=[\n\tIS_IN_DB(db(db.device_type.is_active == True).select(db.device_type.id),\n\tdb.device_type.id, \'%(name)s\'),\n\tIS_NOT_EMPTY()], label="Type"),\n\tField(\'os_type_id\', \'reference os_type\', requires=[\n\tIS_IN_DB(db(db.os_type.is_active == True).select(db.os_type.id),\n\tdb.os_type.id, \'%(name)s\')], label="Operation System"),\n\tField(\'cpu\', \'string\',  label="CPU"),\n\tField(\'ram\', \'string\',  label="RAM"),\n\tField(\'hard_disk\', \'string\',  label="HDD"),\n\tField(\'drive\', \'string\', label="CD/DVD"),\n\tField(\'screen_size\', \'string\', label="Display"),\n\tField(\'is_active\', \'boolean\', default=True, label="Active"),\n\tField(\'created_on\', \'datetime\', default=request.now,\n\t\t\treadable=True, writable=False),\n\tField(\'created_by\', \'reference auth_user\', default=auth.user_id,\n\t\t\treadable=True, writable=False),\n\tField(\'modified_on\', \'datetime\', update=request.now,\n\t\t\treadable=True, writable=False),\n\tField(\'modified_by\', \'reference auth_user\', update=auth.user_id,\n\t\t\treadable=True, writable=False),\n\tformat=\'%(name)s\')\n\n\ndb.device.name.readonly = True\ndb.device.device_brand_id.requires = IS_IN_DB(db(db.device_brand.is_active == True),db.device_brand.id, \'%(name)s\')\ndb.device.device_model_id.requires = IS_IN_DB(db(db.device_model.is_active == True),db.device_model.id, \'%(name)s\')\ndb.device.device_type_id.requires = IS_IN_DB(db(db.device_type.is_active == True),db.device_type.id, \'%(name)s\')\ndb.device.os_type_id.requires = IS_IN_DB(db(db.os_type.is_active == True),db.os_type.id, \'%(name)s\')\nd_code = db(db.device_type.is_active == True).select(db.device_type.id, db.device_type.device_code)\n\n\n# sim_plan\ndb.define_table(\'device_accessories\',\n\tField(\'name\', \'string\', requires=[IS_NOT_EMPTY()], label="Accessories Name"),\n\tField(\'other_info\', \'string\', requires=[IS_NOT_EMPTY()], label="Others Information"),\n\tField(\'is_active\', \'boolean\', default=True, label="Active"),\n\tField(\'created_on\', \'datetime\', default=request.now,\n\t\t\treadable=True, writable=False),\n\tField(\'created_by\', \'reference auth_user\', default=auth.user_id,\n\t\t\treadable=True, writable=False),\n\tField(\'modified_on\', \'datetime\', update=request.now,\n\t\t\treadable=True, writable=False),\n\tField(\'modified_by\', \'reference auth_user\', update=auth.user_id,\n\t\t\treadable=True, writable=False),\n\tformat=\'%(name)s\'\n)\n\n##printer_location\ndb.define_table(\'printer_location\',\n\tField(\'printer_name\', \'string\', requires=[IS_NOT_EMPTY()],label="Printer Name"),\n\tField(\'location_plant_id\', \'reference location_plant\', requires=[IS_NOT_EMPTY()], label="Location"),\n\tField(\'department_id\', \'reference department\', requires=[IS_NOT_EMPTY()], label="Department"),\n\tField(\'printer_id\', \'reference device\', requires=[IS_NOT_EMPTY()], label="Printer"),\n\tField(\'Serial\', \'string\', requires=[IS_NOT_EMPTY()], label="Serial Number"),\n\tField(\'ip_address\', \'string\', default=\'0.0.0.0\', label="Network IP"),\n\tField(\'is_active\', \'boolean\', default=True, label="Active"),\n\tField(\'created_on\', \'datetime\', default=request.now,\n\t\t\treadable=True, writable=False),\n\tField(\'created_by\', \'reference auth_user\', default=auth.user_id,\n\t\t\treadable=True, writable=False),\n\tField(\'modified_on\', \'datetime\', update=request.now,\n\t\t\treadable=True, writable=False),\n\tField(\'modified_by\', \'reference auth_user\', update=auth.user_id,\n\t\t\treadable=True, writable=False),\n\tformat=\'%(printer_name)s\'\n)\n\ndb.printer_location.location_plant_id.requires=IS_IN_DB(db(db.location_plant.is_active == True),db.location_plant.id, \'%(name)s\')\ndb.printer_location.department_id.requires=IS_IN_DB(db(db.department.is_active == True),db.department.id, \'%(name)s\')\nprinter_id = 1\nfor i in db(db.device_type.name == \'Printer\').select(db.device_type.id):\n\tprinter_id = i.id\ndb.printer_location.printer_id.requires=IS_IN_DB(db(db.device.is_active == True and db.device.device_type_id == printer_id),db.device.id, \'%(name)s\')\n\n## Rent Device\ndb.define_table(\'rent\',\n\tField(\'employee_id\', \'reference employee\', requires=IS_NOT_EMPTY(), label="Employee"),\n\tField(\'rent_date\', \'datetime\', requires=IS_NOT_EMPTY(),  default=request.now, label="Rent Date"),\n\tField(\'device_id\', \'reference device\', requires=IS_NOT_EMPTY(), label="Device"),\n\tField(\'serial_number\', \'string\', requires=IS_NOT_EMPTY(), label="S/N or Assets Number"),\n\tField(\'rent_desc\', \'string\', label="Rent Description"),\n\tField(\'is_received\', \'boolean\', default=False, label="Received"),\n\tField(\'receive_date\', \'datetime\', label="Receive Date"),\n\tField(\'created_on\', \'datetime\', default=request.now,\n\t\t\treadable=True, writable=False),\n\tField(\'created_by\', \'reference auth_user\', default=auth.user_id,\n\t\t\treadable=True, writable=False),\n\tField(\'modified_on\', \'datetime\', update=request.now,\n\t\t\treadable=True, writable=False),\n\tField(\'modified_by\', \'reference auth_user\', update=auth.user_id,\n\t\t\treadable=True, writable=False),\n\n)\ndb.rent.rent_date.represent= lambda x, row: x.strftime("%B %d, %Y")\ndb.rent.receive_date.show_if = (db.rent.is_received == True)\ndb.rent.employee_id.requires = IS_IN_DB(db(db.employee.is_active == True),\n\t\t\t\t\t\t\t\t\tdb.employee.id, \'%(name)s\', sort=True)\ndb.rent.device_id.requires = IS_IN_DB(db(db.device.is_active == True),\n\t\t\t\t\t\t\t\t\t\t  db.device.id, \'%(name)s\', sort=True)\n\n\ndb.define_table(\'assign\',\n    Field(\'employee_id\', \'reference employee\', label="Employee", requires=IS_NOT_EMPTY()),\n    Field(\'assign_date\', \'datetime\', default=request.now, label="Assign Date", requires=IS_NOT_EMPTY()),\n\tField(\'email_id\', \'reference email_account\', label="E-Mail", requires=IS_NOT_EMPTY()),\n\tField(\'location_plant_id\', \'reference location_plant\', requires=[IS_NOT_EMPTY()], label="Location"),\n\tField(\'is_active\', \'boolean\', default=True, label="Active"),\n\tField(\'created_on\', \'datetime\', default=request.now,\n\t\t\treadable=True, writable=False),\n\tField(\'created_by\', \'reference auth_user\', default=auth.user_id,\n\t\t\treadable=True, writable=False),\n\tField(\'modified_on\', \'datetime\', update=request.now,\n\t\t\treadable=True, writable=False),\n\tField(\'modified_by\', \'reference auth_user\', update=auth.user_id,\n\t\t\treadable=True, writable=False),\n    format=lambda r: "%s_%s" % (r.assign_date.strftime("%Y%m%d"),\n                                   db.employee(r.employee_id).name))\n\n\ndb.assign.employee_id.requires = IS_IN_DB(db(db.employee.is_active == True),\n\t\t\t\t\t\t\t\t\tdb.employee.id, \'%(name)s\')\ndb.assign.assign_date.requires = IS_NOT_EMPTY()\nemail_id = 0\nfor email in db(db.email_type.is_active == True and db.email_type.email_name == \'Domain\').select(db.email_type.id):\n\temail_id = email.id\ndb.assign.email_id.requires = IS_IN_DB(db(db.email_account.is_used == False and\n\t\t\t\t\t\t\t\t\tdb.email_account.is_active == True and db.email_account.email_type_id == email_id),\n\t\t\t\t\t\t\t\t\tdb.email_account.id, \'%(username)s\')\ndb.assign.location_plant_id.requires=IS_IN_DB(db(db.location_plant.is_active == True),db.location_plant.id, \'%(name)s\')\n\ndb.define_table(\'assign_device\',\n    Field(\'assign_id\', \'reference assign\', label=\'Assign ID\'),\n    Field(\'assign_id\', \'reference assign\', label=\'Assign ID\'),\n    Field(\'device_id\', \'reference device\', label=\'Device\', requires=IS_NOT_EMPTY()),\n    Field(\'serial\', \'string\', unique=True, requires=IS_NOT_EMPTY(), label=\'S/N or Unique Number\'),\n    Field(\'asset_number\', \'string\', label=\'Assets Number\'),\n    Field(\'device_color\', \'string\', label=\'Color\'),\n\tField(\'is_used\', \'boolean\', default=True, label="Used"),\n\tField(\'is_damaged\', \'boolean\', default=False, label="Damaged"),\n\tField(\'is_lost\', \'boolean\', default=False, label="Lost")\n)\n\ndb.assign_device.device_id.requires=IS_IN_DB(db(db.device.is_active==True), db.device.id, \'%(name)s\')\n\nused_serial =[id for id in db((db.assign_device.is_used == True) |\n\t(db.assign_device.is_lost==True) | (db.assign_device.is_damaged==True)).select(db.assign_device.serial)]\ndb.assign_device.serial.requires=IS_NOT_IN_DB(db(db.assign_device.serial == used_serial), \'assign_device.serial\')\n\ndb.define_table(\'assign_app\',\n\tField(\'assign_id\', \'reference assign\', label=\'Assign ID\'),\n\tField(\'app_id\', \'reference app_assign\', label=\'Application Name\', requires=IS_NOT_EMPTY()),\n)\n\ndb.assign_app.app_id.requires = IS_IN_DB(db(db.app_assign.is_active == True), db.app_assign.id, \'%(name)s\')\n\ndb.define_table(\'assign_accessories\',\n\tField(\'assign_id\', \'reference assign\', label=\'Assign ID\'),\n\tField(\'accessories_id\', \'reference device_accessories\', label=\'Accessory\', requires=IS_NOT_EMPTY()),\n\tField(\'serial\', \'string\', requires=IS_NOT_EMPTY(), label=\'S/N or Unique Number\'),\n    Field(\'asset_number\', \'string\', label=\'Assets Number\'),\n\tField(\'is_used\', \'boolean\', default=True, label="Used"),\n\tField(\'is_damaged\', \'boolean\', default=False, label="Damaged"),\n\tField(\'is_lost\', \'boolean\', default=False, label="Lost")\n)\n\ndb.assign.accessories_id.requires=IS_IN_DB(db(db.device_accessories.is_active == True),db.device_accessories.id, \'%(name)s\')\n\ndb.define_table(\'assign_sim\',\n\tField(\'assign_id\', \'reference assign\', label=\'Assign ID\'),\n\tField(\'phone_number\', \'string\', label=\'Assets Number\'),\n\tField(\'sim_brand_id\', \'reference sim_brand\', label=\'Operator\'),\n\tField(\'sim_plan_id\', \'reference sim_plan\', label=\'Plan\'),\n\tField(\'is_used\', \'boolean\', default=True, label="Used"),\n\tField(\'is_locked\', \'boolean\', default=False, label="Locked"),\n\tField(\'is_lost\', \'boolean\', default=False, label="Lost")\n)\n\n\ndb.assign_sim.sim_brand_id.requires = IS_IN_DB(db(db.sim_brand.is_active == True), db.sim_brand.id, \'%(name)s\')\ndb.assign_sim.sim_brand_id.requires = IS_IN_DB(db(db.sim_plan.is_active == True), db.sim_plan.id, \'%(name)s\')\n\n# db.assign_sim.sim_id.requires=IS_IN_DB(db(db.sim.is_active==True), db.sim.id, \'%(name)s\')\nused_sim =[id for id in db((db.assign_sim.is_used == True) | (db.assign_sim.is_locked == True) | (db.assign_sim.is_lost == True)).select(db.assign_sim.phone_number)]\ndb.assign_device.device_id.requires=IS_NOT_IN_DB(db(db.assign_sim.sim_id == used_sim), \'assign_sim.phone_number\')\n\n## default user root\nif db(db.auth_user).count() <1:\n\tdb.auth_group.bulk_insert([\n\t\tdict(role=\'Admin\', description=\'System user\'),\n\t\tdict(role=\'Manager\', description=\'Manager\'),\n\t\tdict(role=\'User\', description=\'User\')\n\t])\n\n\tdb.auth_user.bulk_insert([\n\t\tdict(\n\t\t\tfirst_name=\'System\',\n\t\t\tlast_name=\'Admin\',\n\t\t\temail=\'root@coca-cola.com.mm\',\n\t\t\tpassword=db.auth_user.password.validate(\'C0ke@12345\')[0]\n\t\t),\n\t\tdict(\n\t\t\tfirst_name=\'Nyein\',\n\t\t\tlast_name=\'Chan\',\n\t\t\temail=\'nyeinchan@coca-cola.com.mm\',\n\t\t\tpassword=db.auth_user.password.validate(\'Basn4@C01\')[0]\n\t\t)\n\t])\n\n\tauth.add_membership(user_id=1, group_id=1)\n\tauth.add_membership(user_id=2, group_id=1)\n\n# if db(db.config_group).count() < 1:\n# \tdb.config_group.bulk_insert([\n# \t\tdict(name=myconf.get(\'default_type.acs\')),\n# \t\tdict(name=myconf.get(\'default_type.app\')),\n# \t\tdict(name=myconf.get(\'default_type.dpt\')),\n# \t\tdict(name=myconf.get(\'default_type.dvc\')),\n# \t\tdict(name=myconf.get(\'default_type.eml\')),\n# \t\tdict(name=myconf.get(\'default_type.loc\')),\n# \t\tdict(name=myconf.get(\'default_type.lnc\')),\n# \t\tdict(name=myconf.get(\'default_type.opt\')),\n# \t\tdict(name=myconf.get(\'default_type.pln\')),\n# \t\tdict(name=myconf.get(\'default_type.usr\'))\n# \t])\n\n# Insert into outlet(name, is_active) values\n# (\'Computer Shop\', 1)\n# ,(\'Caf\xc3\xa9\', 1)\n# ,(\'Caf\xc3\xa9 Pub\', 1)\n# ,(\'Clinic with Pharmacy\', 1)\n# ,(\'Cold Drink\', 1)\n# ,(\'Computer Shop\', 1)\n# ,(\'Convenience Store _ Cigarette Specialized\', 1)\n# ,(\'Convenience Store _ Liquor Specialized\', 1)\n# ,(\'Convenience Store _ Miscellaneous/ Sundry\', 1)\n# ,(\'Convenience Store _ Modern Trade\', 1)\n# ,(\'Convenience Store _ Petro Station\', 1)\n# ,(\'Convenience Store _ Specialized\', 1)\n# ,(\'Convenience Store _ Traditional\', 1)\n# ,(\'Department Store\', 1)\n# ,(\'Diner Outlet\', 1)\n# ,(\'Family Stall\', 1)\n# ,(\'Food Stall/Traditional Food\', 1)\n# ,(\'Game Center\', 1)\n# ,(\'General Store\', 1)\n# ,(\'Grocery Store\', 1)\n# ,(\'Guest House/Inn/Motel\', 1)\n# ,(\'Home Appliance\', 1)\n# ,(\'Hotel (International Standard)\', 1)\n# ,(\'Hotel (Local Standard)\', 1)\n# ,(\'Internet Cafe\', 1)\n# ,(\'Kiosks/Hawker\', 1)\n# ,(\'KTV\', 1)\n# ,(\'Mini Mart\', 1)\n# ,(\'Mobile Shop\', 1)\n# ,(\'Night Club\', 1)\n# ,(\'Pharmacy Store\', 1)\n# ,(\'Restaurant with indoor/outdoor Sports\', 1)\n# ,(\'Restaurant with Live Entertainment\', 1)\n# ,(\'Semi Whole Sale\', 1)\n# ,(\'Super Market/Hyper Market\', 1)\n# ,(\'Tea Shop\', 1)\n# ,(\'Whole Sale\', 1)\n# ,(\'Others\', 1);\n#\n# Insert into question (name, is_active) values\n# (\'Cooler Coke\', 1)\n# ,(\'Cooler Pepsi\', 1)\n# ,(\'Cooler Blue Mountain\', 1)\n# ,(\'Cooler Asia\', 1)\n# ,(\'Cooler Own\', 1)\n# ,(\'Refrigerator Own\', 1)\n# ,(\'Freezer Own\', 1)\n# ,(\'Self Service/Outlet Service\', 1)\n# ,(\'Coke RGB\', 1)\n# ,(\'Pepsi RGB\', 1)\n# ,(\'CSD (Non-Alcohol)\', 1)\n# ,(\'Soda (Non-Alcohol)\', 1)\n# ,(\'FF Drink (Non-Alcohol)\', 1)\n# ,(\'FF Powder (Non-Alcohol)\', 1)\n# ,(\'ASD (Non-Alcohol)\', 1)\n# ,(\'Isotonic Drink (Non-Alcohol)\', 1)\n# ,(\'Energy Drink (Non-Alcohol)\', 1)\n# ,(\'Carbonated Energy Drink (Non-Alcohol)\', 1)\n# ,(\'Drinking Water (Non-Alcohol)\', 1)\n# ,(\'Instant Coffee (Non-Alcohol)\', 1)\n# ,(\'Tea Mix (Non-Alcohol)\', 1)\n# ,(\'Coffee Canned (Non-Alcohol)\', 1)\n# ,(\'Import Snack (Foods)\', 1)\n# ,(\'Confectionary (Foods)\', 1)\n# ,(\'Ice Cream/Lollies (Foods)\', 1);\n#\n'
p7
sS'snapshot'
p8
(dp9
S'exception'
p10
(dp11
S'__hash__'
p12
S"<method-wrapper '__hash__' of exceptions.AttributeError object>"
p13
sS'__setattr__'
p14
S"<method-wrapper '__setattr__' of exceptions.AttributeError object>"
p15
sS'__reduce_ex__'
p16
S'<built-in method __reduce_ex__ of exceptions.AttributeError object>'
p17
sS'__getslice__'
p18
S"<method-wrapper '__getslice__' of exceptions.AttributeError object>"
p19
sS'__getitem__'
p20
S"<method-wrapper '__getitem__' of exceptions.AttributeError object>"
p21
sS'__setstate__'
p22
S'<built-in method __setstate__ of exceptions.AttributeError object>'
p23
sS'args'
p24
S'("\'Table\' object has no attribute \'accessories_id\'",)'
p25
sS'__reduce__'
p26
S'<built-in method __reduce__ of exceptions.AttributeError object>'
p27
sS'__str__'
p28
S"<method-wrapper '__str__' of exceptions.AttributeError object>"
p29
sS'__format__'
p30
S'<built-in method __format__ of exceptions.AttributeError object>'
p31
sS'__getattribute__'
p32
S"<method-wrapper '__getattribute__' of exceptions.AttributeError object>"
p33
sS'__class__'
p34
S"<type 'exceptions.AttributeError'>"
p35
sS'__unicode__'
p36
S'<built-in method __unicode__ of exceptions.AttributeError object>'
p37
sS'__delattr__'
p38
S"<method-wrapper '__delattr__' of exceptions.AttributeError object>"
p39
sS'__subclasshook__'
p40
S'<built-in method __subclasshook__ of type object>'
p41
sS'__repr__'
p42
S"<method-wrapper '__repr__' of exceptions.AttributeError object>"
p43
sS'__dict__'
p44
S'{}'
p45
sS'__sizeof__'
p46
S'<built-in method __sizeof__ of exceptions.AttributeError object>'
p47
sS'__doc__'
p48
S"'Attribute not found.'"
p49
sS'__init__'
p50
S"<method-wrapper '__init__' of exceptions.AttributeError object>"
p51
sS'__new__'
p52
S'<built-in method __new__ of type object>'
p53
ssS'evalue'
p54
S"'Table' object has no attribute 'accessories_id'"
p55
sS'request'
p56
cgluon.html
XML_unpickle
p57
(S's\x11_\x00\x00<div><table><tr><td style="font-weight:bold;vertical-align:top;">ajax</td><td style="vertical-align:top;">:</td><td><div>False</div></td></tr><tr><td style="font-weight:bold;vertical-align:top;">application</td><td style="vertical-align:top;">:</td><td><div>monitor</div></td></tr><tr><td style="font-weight:bold;vertical-align:top;">args</td><td style="vertical-align:top;">:</td><td><div><table></table></div></td></tr><tr><td style="font-weight:bold;vertical-align:top;">cid</td><td style="vertical-align:top;">:</td><td><div>None</div></td></tr><tr><td style="font-weight:bold;vertical-align:top;">client</td><td style="vertical-align:top;">:</td><td><div>10.72.47.41</div></td></tr><tr><td style="font-weight:bold;vertical-align:top;">controller</td><td style="vertical-align:top;">:</td><td><div>default</div></td></tr><tr><td style="font-weight:bold;vertical-align:top;">cookies</td><td style="vertical-align:top;">:</td><td><div><table><tr><td style="font-weight:bold;vertical-align:top;">session_id_admin</td><td style="vertical-align:top;">:</td><td><div>10.72.47.41-7060cce9-061e-41bd-afee-c86839847b9c<table><tr><td style="font-weight:bold;vertical-align:top;">comment</td><td style="vertical-align:top;">:</td><td><div></div></td></tr><tr><td style="font-weight:bold;vertical-align:top;">domain</td><td style="vertical-align:top;">:</td><td><div></div></td></tr><tr><td style="font-weight:bold;vertical-align:top;">expires</td><td style="vertical-align:top;">:</td><td><div></div></td></tr><tr><td style="font-weight:bold;vertical-align:top;">httponly</td><td style="vertical-align:top;">:</td><td><div></div></td></tr><tr><td style="font-weight:bold;vertical-align:top;">max-age</td><td style="vertical-align:top;">:</td><td><div></div></td></tr><tr><td style="font-weight:bold;vertical-align:top;">path</td><td style="vertical-align:top;">:</td><td><div></div></td></tr><tr><td style="font-weight:bold;vertical-align:top;">secure</td><td style="vertical-align:top;">:</td><td><div></div></td></tr><tr><td style="font-weight:bold;vertical-align:top;">version</td><td style="vertical-align:top;">:</td><td><div></div></td></tr></table></div></td></tr><tr><td style="font-weight:bold;vertical-align:top;">session_id_monitor</td><td style="vertical-align:top;">:</td><td><div>10.72.47.41-7065efa0-d7b0-43b0-b2d2-c33e00746101<table><tr><td style="font-weight:bold;vertical-align:top;">comment</td><td style="vertical-align:top;">:</td><td><div></div></td></tr><tr><td style="font-weight:bold;vertical-align:top;">domain</td><td style="vertical-align:top;">:</td><td><div></div></td></tr><tr><td style="font-weight:bold;vertical-align:top;">expires</td><td style="vertical-align:top;">:</td><td><div></div></td></tr><tr><td style="font-weight:bold;vertical-align:top;">httponly</td><td style="vertical-align:top;">:</td><td><div></div></td></tr><tr><td style="font-weight:bold;vertical-align:top;">max-age</td><td style="vertical-align:top;">:</td><td><div></div></td></tr><tr><td style="font-weight:bold;vertical-align:top;">path</td><td style="vertical-align:top;">:</td><td><div></div></td></tr><tr><td style="font-weight:bold;vertical-align:top;">secure</td><td style="vertical-align:top;">:</td><td><div></div></td></tr><tr><td style="font-weight:bold;vertical-align:top;">version</td><td style="vertical-align:top;">:</td><td><div></div></td></tr></table></div></td></tr><tr><td style="font-weight:bold;vertical-align:top;">session_id_welcome</td><td style="vertical-align:top;">:</td><td><div>10.72.47.41-27e4aa78-f1ad-4bb0-aca5-65891186a5ba<table><tr><td style="font-weight:bold;vertical-align:top;">comment</td><td style="vertical-align:top;">:</td><td><div></div></td></tr><tr><td style="font-weight:bold;vertical-align:top;">domain</td><td style="vertical-align:top;">:</td><td><div></div></td></tr><tr><td style="font-weight:bold;vertical-align:top;">expires</td><td style="vertical-align:top;">:</td><td><div></div></td></tr><tr><td style="font-weight:bold;vertical-align:top;">httponly</td><td style="vertical-align:top;">:</td><td><div></div></td></tr><tr><td style="font-weight:bold;vertical-align:top;">max-age</td><td style="vertical-align:top;">:</td><td><div></div></td></tr><tr><td style="font-weight:bold;vertical-align:top;">path</td><td style="vertical-align:top;">:</td><td><div></div></td></tr><tr><td style="font-weight:bold;vertical-align:top;">secure</td><td style="vertical-align:top;">:</td><td><div></div></td></tr><tr><td style="font-weight:bold;vertical-align:top;">version</td><td style="vertical-align:top;">:</td><td><div></div></td></tr></table></div></td></tr></table></div></td></tr><tr><td style="font-weight:bold;vertical-align:top;">env</td><td style="vertical-align:top;">:</td><td><div><table><tr><td style="font-weight:bold;vertical-align:top;">HTTPS</td><td style="vertical-align:top;">:</td><td><div>on</div></td></tr><tr><td style="font-weight:bold;vertical-align:top;">HTTP_ACCEPT</td><td style="vertical-align:top;">:</td><td><div>text/html,application/xhtml+xml,application/xml;q=0.9,image/webp,*/*;q=0.8</div></td></tr><tr><td style="font-weight:bold;vertical-align:top;">HTTP_ACCEPT_ENCODING</td><td style="vertical-align:top;">:</td><td><div>gzip, deflate, sdch, br</div></td></tr><tr><td style="font-weight:bold;vertical-align:top;">HTTP_ACCEPT_LANGUAGE</td><td style="vertical-align:top;">:</td><td><div>en-US,en;q=0.8</div></td></tr><tr><td style="font-weight:bold;vertical-align:top;">HTTP_CACHE_CONTROL</td><td style="vertical-align:top;">:</td><td><div>max-age=0</div></td></tr><tr><td style="font-weight:bold;vertical-align:top;">HTTP_CONNECTION</td><td style="vertical-align:top;">:</td><td><div>keep-alive</div></td></tr><tr><td style="font-weight:bold;vertical-align:top;">HTTP_COOKIE</td><td style="vertical-align:top;">:</td><td><div>session_id_welcome=10.72.47.41-27e4aa78-f1ad-4bb0-aca5-65891186a5ba; session_id_admin=10.72.47.41-7060cce9-061e-41bd-afee-c86839847b9c; session_id_monitor=10.72.47.41-7065efa0-d7b0-43b0-b2d2-c33e00746101</div></td></tr><tr><td style="font-weight:bold;vertical-align:top;">HTTP_HOST</td><td style="vertical-align:top;">:</td><td><div>10.72.47.41:8080</div></td></tr><tr><td style="font-weight:bold;vertical-align:top;">HTTP_REFERER</td><td style="vertical-align:top;">:</td><td><div>https://10.72.47.41:8080/monitor/default/assigndetail?assign_id=1</div></td></tr><tr><td style="font-weight:bold;vertical-align:top;">HTTP_UPGRADE_INSECURE_REQUESTS</td><td style="vertical-align:top;">:</td><td><div>1</div></td></tr><tr><td style="font-weight:bold;vertical-align:top;">HTTP_USER_AGENT</td><td style="vertical-align:top;">:</td><td><div>Mozilla/5.0 (X11; Linux x86_64) AppleWebKit/537.36 (KHTML, like Gecko) Chrome/56.0.2924.87 Safari/537.36</div></td></tr><tr><td style="font-weight:bold;vertical-align:top;">PATH_INFO</td><td style="vertical-align:top;">:</td><td><div>/monitor/default/assigndetail</div></td></tr><tr><td style="font-weight:bold;vertical-align:top;">QUERY_STRING</td><td style="vertical-align:top;">:</td><td><div>assign_id=1</div></td></tr><tr><td style="font-weight:bold;vertical-align:top;">REMOTE_ADDR</td><td style="vertical-align:top;">:</td><td><div>10.72.47.41</div></td></tr><tr><td style="font-weight:bold;vertical-align:top;">REMOTE_PORT</td><td style="vertical-align:top;">:</td><td><div>59864</div></td></tr><tr><td style="font-weight:bold;vertical-align:top;">REQUEST_METHOD</td><td style="vertical-align:top;">:</td><td><div>GET</div></td></tr><tr><td style="font-weight:bold;vertical-align:top;">SCRIPT_NAME</td><td style="vertical-align:top;">:</td><td><div></div></td></tr><tr><td style="font-weight:bold;vertical-align:top;">SERVER_NAME</td><td style="vertical-align:top;">:</td><td><div>HTY-L-PC09DD2CU</div></td></tr><tr><td style="font-weight:bold;vertical-align:top;">SERVER_PORT</td><td style="vertical-align:top;">:</td><td><div>8080</div></td></tr><tr><td style="font-weight:bold;vertical-align:top;">SERVER_PROTOCOL</td><td style="vertical-align:top;">:</td><td><div>HTTP/1.1</div></td></tr><tr><td style="font-weight:bold;vertical-align:top;">SERVER_SOFTWARE</td><td style="vertical-align:top;">:</td><td><div>Rocket 1.2.6</div></td></tr><tr><td style="font-weight:bold;vertical-align:top;">SSL_CLIENT_RAW_CERT</td><td style="vertical-align:top;">:</td><td><div>None</div></td></tr><tr><td style="font-weight:bold;vertical-align:top;">app_folders</td><td style="vertical-align:top;">:</td><td><div>set([&#x27;/home/peace/web2py/applications/admin/&#x27;, &#x27;/home/peace/web2py/applications/monitor/&#x27;, &#x27;/home/peace/web2py/applications/welcome/&#x27;])</div></td></tr><tr><td style="font-weight:bold;vertical-align:top;">applications_parent</td><td style="vertical-align:top;">:</td><td><div>/home/peace/web2py</div></td></tr><tr><td style="font-weight:bold;vertical-align:top;">cmd_args</td><td style="vertical-align:top;">:</td><td><div><table></table></div></td></tr><tr><td style="font-weight:bold;vertical-align:top;">cmd_options</td><td style="vertical-align:top;">:</td><td><div>&lt;Values at 0x7fab2e2c1ea8: {&#x27;verbose&#x27;: False, &#x27;ip&#x27;: &#x27;0.0.0.0&#x27;, &#x27;debuglevel&#x27;: 30, &#x27;with_scheduler&#x27;: False, &#x27;shutdown_timeout&#x27;: 5, &#x27;taskbar&#x27;: False, &#x27;with_coverage&#x27;: False, &#x27;pid_filename&#x27;: &#x27;httpserver.pid&#x27;, &#x27;maxthreads&#x27;: None, &#x27;softcron&#x27;: False, &#x27;server_name&#x27;: &#x27;HTY-L-PC09DD2CU&#x27;, &#x27;bpython&#x27;: False, &#x27;nogui&#x27;: False, &#x27;port&#x27;: 8080, &#x27;print_errors&#x27;: False, &#x27;extcron&#x27;: False, &#x27;runcron&#x27;: False, &#x27;run_system_tests&#x27;: False, &#x27;test&#x27;: None, &#x27;folder&#x27;: &#x27;/home/peace/web2py&#x27;, &#x27;config&#x27;: &#x27;&#x27;, &#x27;minthreads&#x27;: None, &#x27;shell&#x27;: None, &#x27;run&#x27;: &#x27;&#x27;, &#x27;log_filename&#x27;: &#x27;httpserver.log&#x27;, &#x27;profiler_dir&#x27;: None, &#x27;args&#x27;: [&#x27;&#x27;], &#x27;socket_timeout&#x27;: 5, &#x27;ssl_ca_certificate&#x27;: None, &#x27;scheduler&#x27;: None, &#x27;interfaces&#x27;: None, &#x27;ssl_private_key&#x27;: &#x27;server.key&#x27;, &#x27;gae&#x27;: None, &#x27;password&#x27;: &#x27;******&#x27;, &#x27;request_queue_size&#x27;: 5, &#x27;ssl_certificate&#x27;: &#x27;server.crt&#x27;, &#x27;cronjob&#x27;: False, &#x27;numthreads&#x27;: None, &#x27;quiet&#x27;: False, &#x27;import_models&#x27;: False, &#x27;timeout&#x27;: 10, &#x27;plain&#x27;: False, &#x27;nobanner&#x27;: False}&gt;</div></td></tr><tr><td style="font-weight:bold;vertical-align:top;">db_sessions</td><td style="vertical-align:top;">:</td><td><div>set([])</div></td></tr><tr><td style="font-weight:bold;vertical-align:top;">debugging</td><td style="vertical-align:top;">:</td><td><div>False</div></td></tr><tr><td style="font-weight:bold;vertical-align:top;">gluon_parent</td><td style="vertical-align:top;">:</td><td><div>/home/peace/web2py</div></td></tr><tr><td style="font-weight:bold;vertical-align:top;">http_accept</td><td style="vertical-align:top;">:</td><td><div>text/html,application/xhtml+xml,application/xml;q=0.9,image/webp,*/*;q=0.8</div></td></tr><tr><td style="font-weight:bold;vertical-align:top;">http_accept_encoding</td><td style="vertical-align:top;">:</td><td><div>gzip, deflate, sdch, br</div></td></tr><tr><td style="font-weight:bold;vertical-align:top;">http_accept_language</td><td style="vertical-align:top;">:</td><td><div>en-US,en;q=0.8</div></td></tr><tr><td style="font-weight:bold;vertical-align:top;">http_cache_control</td><td style="vertical-align:top;">:</td><td><div>max-age=0</div></td></tr><tr><td style="font-weight:bold;vertical-align:top;">http_connection</td><td style="vertical-align:top;">:</td><td><div>keep-alive</div></td></tr><tr><td style="font-weight:bold;vertical-align:top;">http_cookie</td><td style="vertical-align:top;">:</td><td><div>session_id_welcome=10.72.47.41-27e4aa78-f1ad-4bb0-aca5-65891186a5ba; session_id_admin=10.72.47.41-7060cce9-061e-41bd-afee-c86839847b9c; session_id_monitor=10.72.47.41-7065efa0-d7b0-43b0-b2d2-c33e00746101</div></td></tr><tr><td style="font-weight:bold;vertical-align:top;">http_host</td><td style="vertical-align:top;">:</td><td><div>10.72.47.41:8080</div></td></tr><tr><td style="font-weight:bold;vertical-align:top;">http_referer</td><td style="vertical-align:top;">:</td><td><div>https://10.72.47.41:8080/monitor/default/assigndetail?assign_id=1</div></td></tr><tr><td style="font-weight:bold;vertical-align:top;">http_upgrade_insecure_requests</td><td style="vertical-align:top;">:</td><td><div>1</div></td></tr><tr><td style="font-weight:bold;vertical-align:top;">http_user_agent</td><td style="vertical-align:top;">:</td><td><div>Mozilla/5.0 (X11; Linux x86_64) AppleWebKit/537.36 (KHTML, like Gecko) Chrome/56.0.2924.87 Safari/537.36</div></td></tr><tr><td style="font-weight:bold;vertical-align:top;">https</td><td style="vertical-align:top;">:</td><td><div>on</div></td></tr><tr><td style="font-weight:bold;vertical-align:top;">is_jython</td><td style="vertical-align:top;">:</td><td><div>False</div></td></tr><tr><td style="font-weight:bold;vertical-align:top;">is_pypy</td><td style="vertical-align:top;">:</td><td><div>False</div></td></tr><tr><td style="font-weight:bold;vertical-align:top;">is_source</td><td style="vertical-align:top;">:</td><td><div>True</div></td></tr><tr><td style="font-weight:bold;vertical-align:top;">local_hosts</td><td style="vertical-align:top;">:</td><td><div><table><tr><td><div>HTY-L-PC09DD2CU</div></td></tr><tr><td><div>::1</div></td></tr><tr><td><div>127.0.1.1</div></td></tr><tr><td><div>::ffff:127.0.0.1</div></td></tr><tr><td><div>127.0.0.1</div></td></tr></table></div></td></tr><tr><td style="font-weight:bold;vertical-align:top;">path_info</td><td style="vertical-align:top;">:</td><td><div>/monitor/default/assigndetail</div></td></tr><tr><td style="font-weight:bold;vertical-align:top;">query_string</td><td style="vertical-align:top;">:</td><td><div>assign_id=1</div></td></tr><tr><td style="font-weight:bold;vertical-align:top;">remote_addr</td><td style="vertical-align:top;">:</td><td><div>10.72.47.41</div></td></tr><tr><td style="font-weight:bold;vertical-align:top;">remote_port</td><td style="vertical-align:top;">:</td><td><div>59864</div></td></tr><tr><td style="font-weight:bold;vertical-align:top;">request_method</td><td style="vertical-align:top;">:</td><td><div>GET</div></td></tr><tr><td style="font-weight:bold;vertical-align:top;">request_uri</td><td style="vertical-align:top;">:</td><td><div>/monitor/default/assigndetail?assign_id=1</div></td></tr><tr><td style="font-weight:bold;vertical-align:top;">script_name</td><td style="vertical-align:top;">:</td><td><div></div></td></tr><tr><td style="font-weight:bold;vertical-align:top;">server_name</td><td style="vertical-align:top;">:</td><td><div>HTY-L-PC09DD2CU</div></td></tr><tr><td style="font-weight:bold;vertical-align:top;">server_port</td><td style="vertical-align:top;">:</td><td><div>8080</div></td></tr><tr><td style="font-weight:bold;vertical-align:top;">server_protocol</td><td style="vertical-align:top;">:</td><td><div>HTTP/1.1</div></td></tr><tr><td style="font-weight:bold;vertical-align:top;">server_software</td><td style="vertical-align:top;">:</td><td><div>Rocket 1.2.6</div></td></tr><tr><td style="font-weight:bold;vertical-align:top;">ssl_client_raw_cert</td><td style="vertical-align:top;">:</td><td><div>None</div></td></tr><tr><td style="font-weight:bold;vertical-align:top;">web2py_path</td><td style="vertical-align:top;">:</td><td><div>/home/peace/web2py</div></td></tr><tr><td style="font-weight:bold;vertical-align:top;">web2py_version</td><td style="vertical-align:top;">:</td><td><div>2.14.3-stable+timestamp.2016.03.26.23.02.02</div></td></tr><tr><td style="font-weight:bold;vertical-align:top;">wsgi.errors</td><td style="vertical-align:top;">:</td><td><div>&lt;open file &#x27;&lt;stderr&gt;&#x27;, mode &#x27;w&#x27; at 0x7fab334f41e0&gt;</div></td></tr><tr><td style="font-weight:bold;vertical-align:top;">wsgi.file_wrapper</td><td style="vertical-align:top;">:</td><td><div>&lt;class wsgiref.util.FileWrapper at 0x7fab2e2f7738&gt;</div></td></tr><tr><td style="font-weight:bold;vertical-align:top;">wsgi.input</td><td style="vertical-align:top;">:</td><td><div>&lt;socket._fileobject object at 0x7faafb106150&gt;</div></td></tr><tr><td style="font-weight:bold;vertical-align:top;">wsgi.multiprocess</td><td style="vertical-align:top;">:</td><td><div>False</div></td></tr><tr><td style="font-weight:bold;vertical-align:top;">wsgi.multithread</td><td style="vertical-align:top;">:</td><td><div>True</div></td></tr><tr><td style="font-weight:bold;vertical-align:top;">wsgi.run_once</td><td style="vertical-align:top;">:</td><td><div>False</div></td></tr><tr><td style="font-weight:bold;vertical-align:top;">wsgi.url_scheme</td><td style="vertical-align:top;">:</td><td><div>https</div></td></tr><tr><td style="font-weight:bold;vertical-align:top;">wsgi.version</td><td style="vertical-align:top;">:</td><td><div><table><tr><td><div>1</div></td></tr><tr><td><div>0</div></td></tr></table></div></td></tr><tr><td style="font-weight:bold;vertical-align:top;">wsgi_errors</td><td style="vertical-align:top;">:</td><td><div>&lt;open file &#x27;&lt;stderr&gt;&#x27;, mode &#x27;w&#x27; at 0x7fab334f41e0&gt;</div></td></tr><tr><td style="font-weight:bold;vertical-align:top;">wsgi_file_wrapper</td><td style="vertical-align:top;">:</td><td><div>&lt;class wsgiref.util.FileWrapper at 0x7fab2e2f7738&gt;</div></td></tr><tr><td style="font-weight:bold;vertical-align:top;">wsgi_input</td><td style="vertical-align:top;">:</td><td><div>&lt;socket._fileobject object at 0x7faafb106150&gt;</div></td></tr><tr><td style="font-weight:bold;vertical-align:top;">wsgi_multiprocess</td><td style="vertical-align:top;">:</td><td><div>False</div></td></tr><tr><td style="font-weight:bold;vertical-align:top;">wsgi_multithread</td><td style="vertical-align:top;">:</td><td><div>True</div></td></tr><tr><td style="font-weight:bold;vertical-align:top;">wsgi_run_once</td><td style="vertical-align:top;">:</td><td><div>False</div></td></tr><tr><td style="font-weight:bold;vertical-align:top;">wsgi_url_scheme</td><td style="vertical-align:top;">:</td><td><div>https</div></td></tr><tr><td style="font-weight:bold;vertical-align:top;">wsgi_version</td><td style="vertical-align:top;">:</td><td><div><table><tr><td><div>1</div></td></tr><tr><td><div>0</div></td></tr></table></div></td></tr></table></div></td></tr><tr><td style="font-weight:bold;vertical-align:top;">extension</td><td style="vertical-align:top;">:</td><td><div>html</div></td></tr><tr><td style="font-weight:bold;vertical-align:top;">folder</td><td style="vertical-align:top;">:</td><td><div>/home/peace/web2py/applications/monitor/</div></td></tr><tr><td style="font-weight:bold;vertical-align:top;">function</td><td style="vertical-align:top;">:</td><td><div>assigndetail</div></td></tr><tr><td style="font-weight:bold;vertical-align:top;">global_settings</td><td style="vertical-align:top;">:</td><td><div><table><tr><td style="font-weight:bold;vertical-align:top;">app_folders</td><td style="vertical-align:top;">:</td><td><div>set([&#x27;/home/peace/web2py/applications/admin/&#x27;, &#x27;/home/peace/web2py/applications/monitor/&#x27;, &#x27;/home/peace/web2py/applications/welcome/&#x27;])</div></td></tr><tr><td style="font-weight:bold;vertical-align:top;">applications_parent</td><td style="vertical-align:top;">:</td><td><div>/home/peace/web2py</div></td></tr><tr><td style="font-weight:bold;vertical-align:top;">cmd_args</td><td style="vertical-align:top;">:</td><td><div><table></table></div></td></tr><tr><td style="font-weight:bold;vertical-align:top;">cmd_options</td><td style="vertical-align:top;">:</td><td><div>&lt;Values at 0x7fab2e2c1ea8: {&#x27;verbose&#x27;: False, &#x27;ip&#x27;: &#x27;0.0.0.0&#x27;, &#x27;debuglevel&#x27;: 30, &#x27;with_scheduler&#x27;: False, &#x27;shutdown_timeout&#x27;: 5, &#x27;taskbar&#x27;: False, &#x27;with_coverage&#x27;: False, &#x27;pid_filename&#x27;: &#x27;httpserver.pid&#x27;, &#x27;maxthreads&#x27;: None, &#x27;softcron&#x27;: False, &#x27;server_name&#x27;: &#x27;HTY-L-PC09DD2CU&#x27;, &#x27;bpython&#x27;: False, &#x27;nogui&#x27;: False, &#x27;port&#x27;: 8080, &#x27;print_errors&#x27;: False, &#x27;extcron&#x27;: False, &#x27;runcron&#x27;: False, &#x27;run_system_tests&#x27;: False, &#x27;test&#x27;: None, &#x27;folder&#x27;: &#x27;/home/peace/web2py&#x27;, &#x27;config&#x27;: &#x27;&#x27;, &#x27;minthreads&#x27;: None, &#x27;shell&#x27;: None, &#x27;run&#x27;: &#x27;&#x27;, &#x27;log_filename&#x27;: &#x27;httpserver.log&#x27;, &#x27;profiler_dir&#x27;: None, &#x27;args&#x27;: [&#x27;&#x27;], &#x27;socket_timeout&#x27;: 5, &#x27;ssl_ca_certificate&#x27;: None, &#x27;scheduler&#x27;: None, &#x27;interfaces&#x27;: None, &#x27;ssl_private_key&#x27;: &#x27;server.key&#x27;, &#x27;gae&#x27;: None, &#x27;password&#x27;: &#x27;******&#x27;, &#x27;request_queue_size&#x27;: 5, &#x27;ssl_certificate&#x27;: &#x27;server.crt&#x27;, &#x27;cronjob&#x27;: False, &#x27;numthreads&#x27;: None, &#x27;quiet&#x27;: False, &#x27;import_models&#x27;: False, &#x27;timeout&#x27;: 10, &#x27;plain&#x27;: False, &#x27;nobanner&#x27;: False}&gt;</div></td></tr><tr><td style="font-weight:bold;vertical-align:top;">db_sessions</td><td style="vertical-align:top;">:</td><td><div>set([])</div></td></tr><tr><td style="font-weight:bold;vertical-align:top;">debugging</td><td style="vertical-align:top;">:</td><td><div>False</div></td></tr><tr><td style="font-weight:bold;vertical-align:top;">gluon_parent</td><td style="vertical-align:top;">:</td><td><div>/home/peace/web2py</div></td></tr><tr><td style="font-weight:bold;vertical-align:top;">is_jython</td><td style="vertical-align:top;">:</td><td><div>False</div></td></tr><tr><td style="font-weight:bold;vertical-align:top;">is_pypy</td><td style="vertical-align:top;">:</td><td><div>False</div></td></tr><tr><td style="font-weight:bold;vertical-align:top;">is_source</td><td style="vertical-align:top;">:</td><td><div>True</div></td></tr><tr><td style="font-weight:bold;vertical-align:top;">local_hosts</td><td style="vertical-align:top;">:</td><td><div><table><tr><td><div>HTY-L-PC09DD2CU</div></td></tr><tr><td><div>::1</div></td></tr><tr><td><div>127.0.1.1</div></td></tr><tr><td><div>::ffff:127.0.0.1</div></td></tr><tr><td><div>127.0.0.1</div></td></tr></table></div></td></tr><tr><td style="font-weight:bold;vertical-align:top;">web2py_version</td><td style="vertical-align:top;">:</td><td><div>2.14.3-stable+timestamp.2016.03.26.23.02.02</div></td></tr></table></div></td></tr><tr><td style="font-weight:bold;vertical-align:top;">is_https</td><td style="vertical-align:top;">:</td><td><div>True</div></td></tr><tr><td style="font-weight:bold;vertical-align:top;">is_local</td><td style="vertical-align:top;">:</td><td><div>False</div></td></tr><tr><td style="font-weight:bold;vertical-align:top;">is_restful</td><td style="vertical-align:top;">:</td><td><div>False</div></td></tr><tr><td style="font-weight:bold;vertical-align:top;">is_scheduler</td><td style="vertical-align:top;">:</td><td><div>False</div></td></tr><tr><td style="font-weight:bold;vertical-align:top;">is_shell</td><td style="vertical-align:top;">:</td><td><div>False</div></td></tr><tr><td style="font-weight:bold;vertical-align:top;">now</td><td style="vertical-align:top;">:</td><td><div>datetime.datetime(2017, 3, 3, 13, 58, 15, 111228)</div></td></tr><tr><td style="font-weight:bold;vertical-align:top;">raw_args</td><td style="vertical-align:top;">:</td><td><div></div></td></tr><tr><td style="font-weight:bold;vertical-align:top;">raw_extension</td><td style="vertical-align:top;">:</td><td><div>None</div></td></tr><tr><td style="font-weight:bold;vertical-align:top;">url</td><td style="vertical-align:top;">:</td><td><div>/monitor/default/assigndetail</div></td></tr><tr><td style="font-weight:bold;vertical-align:top;">utcnow</td><td style="vertical-align:top;">:</td><td><div>datetime.datetime(2017, 3, 3, 7, 28, 15, 111260)</div></td></tr><tr><td style="font-weight:bold;vertical-align:top;">wsgi</td><td style="vertical-align:top;">:</td><td><div>&lt;gluon.main.LazyWSGI object at 0x7faafb0f3c50&gt;</div></td></tr></table></div>'
tRp58
sS'frames'
p59
(lp60
(dp61
S'file'
p62
S'/home/peace/web2py/gluon/restricted.py'
p63
sS'dump'
p64
(dp65
S'environment'
p66
S"{'A': <class 'gluon.html.A'>, 'ANY_OF': <class 'gluon.validators.ANY_OF'>, 'ASSIGNJS': <function ASSIGNJS>, 'AppConfig': <function AppConfig>, 'Auth': <class 'gluon.tools.Auth'>, 'B': <class 'gluon.html.B'>, 'BEAUTIFY': <class 'gluon.html.BEAUTIFY'>, 'BODY': <class 'gluon.html.BODY'>, 'BR': <class 'gluon.html.BR'>, 'BUTTON': <class 'gluon.html.BUTTON'>, ...}"
p67
sS'ccode'
p68
S'<code object <module> at 0x7faafadfc530, file "/.../applications/monitor/models/dbsetup.py", line 1>'
p69
ssS'lnum'
p70
I227
sS'lines'
p71
(dp72
I224
S'            ccode = code'
p73
sI225
S'        else:'
p74
sI226
S'            ccode = compile2(code, layer)'
p75
sI227
S'        exec ccode in environment'
p76
sI228
S'    except HTTP:'
p77
sI229
S'        raise'
p78
sI230
S'    except RestrictedError:'
p79
sI231
S'        # do not encapsulate (obfuscate) the original RestrictedError'
p80
sI222
S'    try:'
p81
sI223
S'        if isinstance(code, types.CodeType):'
p82
ssS'call'
p83
S'(code="from datetime import datetime\\nfrom gluon.contrib...ods)\', 1)\\n# ,(\'Ice Cream/Lollies (Foods)\', 1);\\n#\\n", environment={\'A\': <class \'gluon.html.A\'>, \'ANY_OF\': <class \'gluon.validators.ANY_OF\'>, \'ASSIGNJS\': <function ASSIGNJS>, \'AppConfig\': <function AppConfig>, \'Auth\': <class \'gluon.tools.Auth\'>, \'B\': <class \'gluon.html.B\'>, \'BEAUTIFY\': <class \'gluon.html.BEAUTIFY\'>, \'BODY\': <class \'gluon.html.BODY\'>, \'BR\': <class \'gluon.html.BR\'>, \'BUTTON\': <class \'gluon.html.BUTTON\'>, ...}, layer=\'/home/peace/web2py/applications/monitor/models/dbsetup.py\')'
p84
sS'func'
p85
S'restricted'
p86
sa(dp87
g62
S'/home/peace/web2py/applications/monitor/models/dbsetup.py'
p88
sg64
(dp89
S'db.assign'
p90
S'<Table assign (id, employee_id, assign_date, ema...reated_on, created_by, modified_on, modified_by)>'
p91
sS'builtinTrue'
p92
S'True'
p93
sS'db'
p94
S'<DAL uri="mysql:******@localhost/devicemonitor">'
p95
sS'db.assign.accessories_id'
p96
S'undefined'
p97
sS'IS_IN_DB'
p98
S"<class 'gluon.validators.IS_IN_DB'>"
p99
sS'db.device_accessories'
p100
S'<Table device_accessories (id, name, other_info,...reated_on, created_by, modified_on, modified_by)>'
p101
sS'db.device_accessories.is_active'
p102
S'<pydal.objects.Field object>'
p103
sS'db.device_accessories.id'
p104
S'<pydal.objects.Field object>'
p105
ssg70
I480
sg71
(dp106
I480
S"db.assign.accessories_id.requires=IS_IN_DB(db(db.device_accessories.is_active == True),db.device_accessories.id, '%(name)s')"
p107
sI481
S''
sI482
S"db.define_table('assign_sim',"
p108
sI483
S"\tField('assign_id', 'reference assign', label='Assign ID'),"
p109
sI484
S"\tField('phone_number', 'string', label='Assets Number'),"
p110
sI475
S'\tField(\'is_used\', \'boolean\', default=True, label="Used"),'
p111
sI476
S'\tField(\'is_damaged\', \'boolean\', default=False, label="Damaged"),'
p112
sI477
S'\tField(\'is_lost\', \'boolean\', default=False, label="Lost")'
p113
sI478
S')'
sI479
S''
ssg83
S'()'
p114
sg85
S'<module>'
p115
sasS'pyver'
p116
S'Python 2.7.12: /usr/bin/python (prefix: /usr)'
p117
sS'session'
p118
g57
(S's\xf1\x08\x00\x00<div><table><tr><td style="font-weight:bold;vertical-align:top;">auth</td><td style="vertical-align:top;">:</td><td><div><table><tr><td style="font-weight:bold;vertical-align:top;">expiration</td><td style="vertical-align:top;">:</td><td><div>2592000</div></td></tr><tr><td style="font-weight:bold;vertical-align:top;">hmac_key</td><td style="vertical-align:top;">:</td><td><div>2e9a1668-f213-4045-8d30-52e7f4bd6cba</div></td></tr><tr><td style="font-weight:bold;vertical-align:top;">last_visit</td><td style="vertical-align:top;">:</td><td><div>datetime.datetime(2017, 2, 27, 10, 47, 49, 692485)</div></td></tr><tr><td style="font-weight:bold;vertical-align:top;">remember_me</td><td style="vertical-align:top;">:</td><td><div>True</div></td></tr><tr><td style="font-weight:bold;vertical-align:top;">user</td><td style="vertical-align:top;">:</td><td><div><table><tr><td style="font-weight:bold;vertical-align:top;">email</td><td style="vertical-align:top;">:</td><td><div>nyeinchan@coca-cola.com.mm</div></td></tr><tr><td style="font-weight:bold;vertical-align:top;">first_name</td><td style="vertical-align:top;">:</td><td><div>Nyein</div></td></tr><tr><td style="font-weight:bold;vertical-align:top;">id</td><td style="vertical-align:top;">:</td><td><div>2L</div></td></tr><tr><td style="font-weight:bold;vertical-align:top;">last_name</td><td style="vertical-align:top;">:</td><td><div>Chan</div></td></tr><tr><td style="font-weight:bold;vertical-align:top;">registration_id</td><td style="vertical-align:top;">:</td><td><div></div></td></tr><tr><td style="font-weight:bold;vertical-align:top;">registration_key</td><td style="vertical-align:top;">:</td><td><div></div></td></tr><tr><td style="font-weight:bold;vertical-align:top;">reset_password_key</td><td style="vertical-align:top;">:</td><td><div></div></td></tr></table></div></td></tr><tr><td style="font-weight:bold;vertical-align:top;">user_groups</td><td style="vertical-align:top;">:</td><td><div><table><tr><td style="font-weight:bold;vertical-align:top;">1</td><td style="vertical-align:top;">:</td><td><div>Admin</div></td></tr></table></div></td></tr></table></div></td></tr><tr><td style="font-weight:bold;vertical-align:top;">flash</td><td style="vertical-align:top;">:</td><td><div>None</div></td></tr></table></div>'
tRp119
sS'etype'
p120
S"<type 'exceptions.AttributeError'>"
p121
sS'date'
p122
S'Fri Mar  3 13:58:15 2017'
p123
sS'response'
p124
g57
(S's~\x17\x00\x00<div><table><tr><td style="font-weight:bold;vertical-align:top;">body</td><td style="vertical-align:top;">:</td><td><div>&lt;cStringIO.StringO object at 0x7faafa62c6c0&gt;</div></td></tr><tr><td style="font-weight:bold;vertical-align:top;">cookies</td><td style="vertical-align:top;">:</td><td><div><table><tr><td style="font-weight:bold;vertical-align:top;">session_id_monitor</td><td style="vertical-align:top;">:</td><td><div>10.72.47.41-7065efa0-d7b0-43b0-b2d2-c33e00746101<table><tr><td style="font-weight:bold;vertical-align:top;">comment</td><td style="vertical-align:top;">:</td><td><div></div></td></tr><tr><td style="font-weight:bold;vertical-align:top;">domain</td><td style="vertical-align:top;">:</td><td><div></div></td></tr><tr><td style="font-weight:bold;vertical-align:top;">expires</td><td style="vertical-align:top;">:</td><td><div></div></td></tr><tr><td style="font-weight:bold;vertical-align:top;">httponly</td><td style="vertical-align:top;">:</td><td><div></div></td></tr><tr><td style="font-weight:bold;vertical-align:top;">max-age</td><td style="vertical-align:top;">:</td><td><div></div></td></tr><tr><td style="font-weight:bold;vertical-align:top;">path</td><td style="vertical-align:top;">:</td><td><div>/</div></td></tr><tr><td style="font-weight:bold;vertical-align:top;">secure</td><td style="vertical-align:top;">:</td><td><div></div></td></tr><tr><td style="font-weight:bold;vertical-align:top;">version</td><td style="vertical-align:top;">:</td><td><div></div></td></tr></table></div></td></tr></table></div></td></tr><tr><td style="font-weight:bold;vertical-align:top;">delimiters</td><td style="vertical-align:top;">:</td><td><div><table><tr><td><div>{{</div></td></tr><tr><td><div>}}</div></td></tr></table></div></td></tr><tr><td style="font-weight:bold;vertical-align:top;">files</td><td style="vertical-align:top;">:</td><td><div><table></table></div></td></tr><tr><td style="font-weight:bold;vertical-align:top;">flash</td><td style="vertical-align:top;">:</td><td><div></div></td></tr><tr><td style="font-weight:bold;vertical-align:top;">form_label_separator</td><td style="vertical-align:top;">:</td><td><div></div></td></tr><tr><td style="font-weight:bold;vertical-align:top;">formstyle</td><td style="vertical-align:top;">:</td><td><div>bootstrap3_stacked</div></td></tr><tr><td style="font-weight:bold;vertical-align:top;">generic_patterns</td><td style="vertical-align:top;">:</td><td><div><table><tr><td><div>*</div></td></tr></table></div></td></tr><tr><td style="font-weight:bold;vertical-align:top;">headers</td><td style="vertical-align:top;">:</td><td><div><table><tr><td style="font-weight:bold;vertical-align:top;">X-Powered-By</td><td style="vertical-align:top;">:</td><td><div>web2py</div></td></tr></table></div></td></tr><tr><td style="font-weight:bold;vertical-align:top;">menu</td><td style="vertical-align:top;">:</td><td><div><table></table></div></td></tr><tr><td style="font-weight:bold;vertical-align:top;">meta</td><td style="vertical-align:top;">:</td><td><div><table></table></div></td></tr><tr><td style="font-weight:bold;vertical-align:top;">models_to_run</td><td style="vertical-align:top;">:</td><td><div><table><tr><td><div>^\\w+\\.py$</div></td></tr><tr><td><div>^default/\\w+\\.py$</div></td></tr><tr><td><div>^default/assigndetail/\\w+\\.py$</div></td></tr></table></div></td></tr><tr><td style="font-weight:bold;vertical-align:top;">postprocessing</td><td style="vertical-align:top;">:</td><td><div><table></table></div></td></tr><tr><td style="font-weight:bold;vertical-align:top;">session_client</td><td style="vertical-align:top;">:</td><td><div>10.72.47.41</div></td></tr><tr><td style="font-weight:bold;vertical-align:top;">session_cookie_compression_level</td><td style="vertical-align:top;">:</td><td><div>None</div></td></tr><tr><td style="font-weight:bold;vertical-align:top;">session_cookie_expires</td><td style="vertical-align:top;">:</td><td><div>2592000</div></td></tr><tr><td style="font-weight:bold;vertical-align:top;">session_data_name</td><td style="vertical-align:top;">:</td><td><div>session_data_monitor</div></td></tr><tr><td style="font-weight:bold;vertical-align:top;">session_file</td><td style="vertical-align:top;">:</td><td><div>&lt;open file &#x27;/home/peace/web2py/applications/monitor/sessions/071/1e7/10.72.47.41-7065efa0-d7b0-43b0-b2d2-c33e00746101&#x27;, mode &#x27;rb+&#x27; at 0x7faafa809a50&gt;</div></td></tr><tr><td style="font-weight:bold;vertical-align:top;">session_filename</td><td style="vertical-align:top;">:</td><td><div>/home/peace/web2py/applications/monitor/sessions/10.72.47.41-7065efa0-d7b0-43b0-b2d2-c33e00746101</div></td></tr><tr><td style="font-weight:bold;vertical-align:top;">session_hash</td><td style="vertical-align:top;">:</td><td><div>7f96a1a6aa05353972011df61bbfae7e</div></td></tr><tr><td style="font-weight:bold;vertical-align:top;">session_id</td><td style="vertical-align:top;">:</td><td><div>10.72.47.41-7065efa0-d7b0-43b0-b2d2-c33e00746101</div></td></tr><tr><td style="font-weight:bold;vertical-align:top;">session_id_name</td><td style="vertical-align:top;">:</td><td><div>session_id_monitor</div></td></tr><tr><td style="font-weight:bold;vertical-align:top;">session_locked</td><td style="vertical-align:top;">:</td><td><div>True</div></td></tr><tr><td style="font-weight:bold;vertical-align:top;">session_masterapp</td><td style="vertical-align:top;">:</td><td><div>monitor</div></td></tr><tr><td style="font-weight:bold;vertical-align:top;">session_new</td><td style="vertical-align:top;">:</td><td><div>False</div></td></tr><tr><td style="font-weight:bold;vertical-align:top;">session_storage_type</td><td style="vertical-align:top;">:</td><td><div>file</div></td></tr><tr><td style="font-weight:bold;vertical-align:top;">status</td><td style="vertical-align:top;">:</td><td><div>200</div></td></tr><tr><td style="font-weight:bold;vertical-align:top;">view</td><td style="vertical-align:top;">:</td><td><div>default/assigndetail.html</div></td></tr></table></div>'
tRp125
sS'locals'
p126
(dp127
S'Service'
p128
S"<class 'gluon.tools.Service'>"
p129
sS'OBJECT'
p130
S"<class 'gluon.html.OBJECT'>"
p131
sS'SQLDB'
p132
S"<class 'pydal.base.DAL'>"
p133
sg118
S"<Storage {'_auth_next': None, 'flash': None, '_f...gin]': ['90a87337-97a2-4a0d-9d8e-fa7bd03808e7']}>"
p134
sS'LINK'
p135
S"<class 'gluon.html.LINK'>"
p136
sS'BR'
p137
S"<class 'gluon.html.BR'>"
p138
sS'local_import'
p139
S'<function <lambda>>'
p140
sS'OPTGROUP'
p141
S"<class 'gluon.html.OPTGROUP'>"
p142
sS'LI'
p143
S"<class 'gluon.html.LI'>"
p144
sS'PRE'
p145
S"<class 'gluon.html.PRE'>"
p146
sS'IS_INT_IN_RANGE'
p147
S"<class 'gluon.validators.IS_INT_IN_RANGE'>"
p148
sS'IS_LOWER'
p149
S"<class 'gluon.validators.IS_LOWER'>"
p150
sS'IS_STRONG'
p151
S"<class 'gluon.validators.IS_STRONG'>"
p152
sS'cache'
p153
S'<gluon.cache.Cache object>'
p154
sS'IS_IN_DB'
p155
S"<class 'gluon.validators.IS_IN_DB'>"
p156
sS'TAG'
p157
S'<gluon.html.__TAG__ object>'
p158
sS'SQLField'
p159
S"<class 'pydal.objects.Field'>"
p160
sS'mail'
p161
S'<gluon.tools.Mail object>'
p162
sS'BODY'
p163
S"<class 'gluon.html.BODY'>"
p164
sS'IS_DATE_IN_RANGE'
p165
S"<class 'gluon.validators.IS_DATE_IN_RANGE'>"
p166
sS'TH'
p167
S"<class 'gluon.html.TH'>"
p168
sS'URL'
p169
S'<function URL>'
p170
sS'__file__'
p171
S"'/home/peace/web2py/applications/monitor/models/dbsetup.py'"
p172
sS'db'
p173
S'<DAL uri="mysql:******@localhost/devicemonitor">'
p174
sS'auth'
p175
S'<gluon.tools.Auth object>'
p176
sS'P'
S"<class 'gluon.html.P'>"
p177
sS'TFOOT'
p178
S"<class 'gluon.html.TFOOT'>"
p179
sS'XHTML'
p180
S"<class 'gluon.html.XHTML'>"
p181
sS'datetime'
p182
S"<type 'datetime.datetime'>"
p183
sS'ON'
p184
g93
sS'OL'
p185
S"<class 'gluon.html.OL'>"
p186
sS'TEXTAREA'
p187
S"<class 'gluon.html.TEXTAREA'>"
p188
sS'MENU'
p189
S"<class 'gluon.html.MENU'>"
p190
sS'LOAD'
p191
S'<function LOAD>'
p192
sS'CODE'
p193
S"<class 'gluon.html.CODE'>"
p194
sS'HTTP'
p195
S"<class 'gluon.http.HTTP'>"
p196
sS'email_id'
p197
S'1L'
p198
sS'IS_DATETIME'
p199
S"<class 'gluon.validators.IS_DATETIME'>"
p200
sS'HEAD'
p201
S"<class 'gluon.html.HEAD'>"
p202
sS'LABEL'
p203
S"<class 'gluon.html.LABEL'>"
p204
sS'CLEANUP'
p205
S"<class 'gluon.validators.CLEANUP'>"
p206
sS'plugins'
p207
S'<gluon.tools.PluginManager object>'
p208
sS'id'
p209
S"<Row {'serial': 'PC09DD2C'}>"
p210
sS'SELECT'
p211
S"<class 'gluon.html.SELECT'>"
p212
sS'CENTER'
p213
S"<class 'gluon.html.CENTER'>"
p214
sS'Crud'
p215
S"<class 'gluon.tools.Crud'>"
p216
sS'Auth'
p217
S"<class 'gluon.tools.Auth'>"
p218
sS'__builtins__'
p219
S"{'ArithmeticError': <type 'exceptions.ArithmeticError'>, 'AssertionError': <type 'exceptions.AssertionError'>, 'AttributeError': <type 'exceptions.AttributeError'>, 'BaseException': <type 'exceptions.BaseException'>, 'BufferError': <type 'exceptions.BufferError'>, 'BytesWarning': <type 'exceptions.BytesWarning'>, 'DeprecationWarning': <type 'exceptions.DeprecationWarning'>, 'EOFError': <type 'exceptions.EOFError'>, 'Ellipsis': Ellipsis, 'EnvironmentError': <type 'exceptions.EnvironmentError'>, ...}"
p220
sS'HTML'
p221
S"<class 'gluon.html.HTML'>"
p222
sS'SQLFORM'
p223
S"<class 'gluon.sqlhtml.SQLFORM'>"
p224
sS'email'
p225
S"<Row {'email_account': <Set (email_account.email_type_id = 1)>, 'id': 1L}>"
p226
sS'EM'
p227
S"<class 'gluon.html.EM'>"
p228
sS'redirect'
p229
S'<function redirect>'
p230
sS'FIELDSET'
p231
S"<class 'gluon.html.FIELDSET'>"
p232
sS'IS_EQUAL_TO'
p233
S"<class 'gluon.validators.IS_EQUAL_TO'>"
p234
sS'embed64'
p235
S'<function embed64>'
p236
sS'IS_LIST_OF'
p237
S"<class 'gluon.validators.IS_LIST_OF'>"
p238
sS'__name__'
p239
S"'__restricted__'"
p240
sS'EMBED'
p241
S"<class 'gluon.html.EMBED'>"
p242
sS'FORM'
p243
S"<class 'gluon.html.FORM'>"
p244
sS'myconf'
p245
S"{'forms': {'formstyle': 'bootstrap3_stacked', 's...nse', 'pln': 'Plan', 'oss': 'OS', 'usr': 'User'}}"
p246
sS'H2'
p247
S"<class 'gluon.html.H2'>"
p248
sS'H3'
p249
S"<class 'gluon.html.H3'>"
p250
sS'AppConfig'
p251
S'<function AppConfig>'
p252
sS'H1'
p253
S"<class 'gluon.html.H1'>"
p254
sS'H6'
p255
S"<class 'gluon.html.H6'>"
p256
sS'H4'
p257
S"<class 'gluon.html.H4'>"
p258
sS'H5'
p259
S"<class 'gluon.html.H5'>"
p260
sS'UL'
p261
S"<class 'gluon.html.UL'>"
p262
sS'IS_UPPER'
p263
S"<class 'gluon.validators.IS_UPPER'>"
p264
sS'xmlescape'
p265
S'<function xmlescape>'
p266
sS'IS_TIME'
p267
S"<class 'gluon.validators.IS_TIME'>"
p268
sS'os'
p269
S"<module 'os' from '/usr/lib/python2.7/os.pyc'>"
p270
sS'used_serial'
p271
S"[<Row {'serial': 'PC09DD2C'}>]"
p272
sS'OPTION'
p273
S"<class 'gluon.html.OPTION'>"
p274
sS'TITLE'
p275
S"<class 'gluon.html.TITLE'>"
p276
sS'CRYPT'
p277
S"<class 'gluon.validators.CRYPT'>"
p278
sS'IS_EMPTY_OR'
p279
S"<class 'gluon.validators.IS_EMPTY_OR'>"
p280
sS'MARKMIN'
p281
S"<class 'gluon.html.MARKMIN'>"
p282
sS'INPUT'
p283
S"<class 'gluon.html.INPUT'>"
p284
sS'STRONG'
p285
S"<class 'gluon.html.STRONG'>"
p286
sS'COL'
p287
S"<class 'gluon.html.COL'>"
p288
sS'service'
p289
S'<gluon.tools.Service object>'
p290
sS'SCRIPT'
p291
S"<class 'gluon.html.SCRIPT'>"
p292
sS'HR'
p293
S"<class 'gluon.html.HR'>"
p294
sS'TABLE'
p295
S"<class 'gluon.html.TABLE'>"
p296
sS'IS_IPV4'
p297
S"<class 'gluon.validators.IS_IPV4'>"
p298
sS'IS_LENGTH'
p299
S"<class 'gluon.validators.IS_LENGTH'>"
p300
sS'IS_IPV6'
p301
S"<class 'gluon.validators.IS_IPV6'>"
p302
sS'XML'
p303
S"<class 'gluon.html.XML'>"
p304
sS'B'
S"<class 'gluon.html.B'>"
p305
sS'IMG'
p306
S"<class 'gluon.html.IMG'>"
p307
sS'SQLTABLE'
p308
S"<class 'gluon.sqlhtml.SQLTABLE'>"
p309
sS'IS_MATCH'
p310
S"<class 'gluon.validators.IS_MATCH'>"
p311
sS'IS_ALPHANUMERIC'
p312
S"<class 'gluon.validators.IS_ALPHANUMERIC'>"
p313
sS'SPAN'
p314
S"<class 'gluon.html.SPAN'>"
p315
sS'IS_JSON'
p316
S"<class 'gluon.validators.IS_JSON'>"
p317
sS'IS_IPADDRESS'
p318
S"<class 'gluon.validators.IS_IPADDRESS'>"
p319
sS'IS_SLUG'
p320
S"<class 'gluon.validators.IS_SLUG'>"
p321
sS'BEAUTIFY'
p322
S"<class 'gluon.html.BEAUTIFY'>"
p323
sS'META'
p324
S"<class 'gluon.html.META'>"
p325
sS'BUTTON'
p326
S"<class 'gluon.html.BUTTON'>"
p327
sS'IS_DATE'
p328
S"<class 'gluon.validators.IS_DATE'>"
p329
sS'IS_EMAIL'
p330
S"<class 'gluon.validators.IS_EMAIL'>"
p331
sS'IS_NOT_EMPTY'
p332
S"<class 'gluon.validators.IS_NOT_EMPTY'>"
p333
sS'IS_FLOAT_IN_RANGE'
p334
S"<class 'gluon.validators.IS_FLOAT_IN_RANGE'>"
p335
sS'TBODY'
p336
S"<class 'gluon.html.TBODY'>"
p337
sS'CAT'
p338
S"<class 'gluon.html.CAT'>"
p339
sS'Field'
p340
S"<class 'pydal.objects.Field'>"
p341
sS'IS_LIST_OF_EMAILS'
p342
S"<class 'gluon.validators.IS_LIST_OF_EMAILS'>"
p343
sS'Mail'
p344
S"<class 'gluon.tools.Mail'>"
p345
sS'DIV'
p346
S"<class 'gluon.html.DIV'>"
p347
sS'LEGEND'
p348
S"<class 'gluon.html.LEGEND'>"
p349
sS'COLGROUP'
p350
S"<class 'gluon.html.COLGROUP'>"
p351
sS'DAL'
p352
S"<class 'pydal.base.DAL'>"
p353
sS'ASSIGNJS'
p354
S'<function ASSIGNJS>'
p355
sS'TR'
p356
S"<class 'gluon.html.TR'>"
p357
sS'__package__'
p358
S'None'
p359
sS'IFRAME'
p360
S"<class 'gluon.html.IFRAME'>"
p361
sS'TD'
p362
S"<class 'gluon.html.TD'>"
p363
sS'PluginManager'
p364
S"<class 'gluon.tools.PluginManager'>"
p365
sS'IS_URL'
p366
S"<class 'gluon.validators.IS_URL'>"
p367
sS'A'
S"<class 'gluon.html.A'>"
p368
sS'STYLE'
p369
S"<class 'gluon.html.STYLE'>"
p370
sS'IS_DATETIME_IN_RANGE'
p371
S"<class 'gluon.validators.IS_DATETIME_IN_RANGE'>"
p372
sS'IS_IMAGE'
p373
S"<class 'gluon.validators.IS_IMAGE'>"
p374
sS'I'
S"<class 'gluon.html.I'>"
p375
sS'crud'
p376
S'<gluon.tools.Crud object>'
p377
sS'IS_NOT_IN_DB'
p378
S"<class 'gluon.validators.IS_NOT_IN_DB'>"
p379
sS'd_code'
p380
S'<Rows (6)>'
p381
sg124
S"<Storage {'body': <cStringIO.StringO object at 0...b3031dc08>, 'view': 'default/assigndetail.html'}>"
p382
sS'printer_id'
p383
S'6L'
p384
sS'THEAD'
p385
S"<class 'gluon.html.THEAD'>"
p386
sS'ANY_OF'
p387
S"<class 'gluon.validators.ANY_OF'>"
p388
sS'IS_NULL_OR'
p389
S"<class 'gluon.validators.IS_EMPTY_OR'>"
p390
sS'i'
S"<Row {'device': <Set (device.device_type_id = 6)>, 'id': 6L}>"
p391
sg56
S"<Storage {'_vars': None, 'function': 'assigndeta...er': '/home/peace/web2py/applications/monitor/'}>"
p392
sS'IS_EXPR'
p393
S"<class 'gluon.validators.IS_EXPR'>"
p394
sS'IS_IN_SET'
p395
S"<class 'gluon.validators.IS_IN_SET'>"
p396
sS'IS_UPLOAD_FILENAME'
p397
S"<class 'gluon.validators.IS_UPLOAD_FILENAME'>"
p398
sS'IS_DECIMAL_IN_RANGE'
p399
S"<class 'gluon.validators.IS_DECIMAL_IN_RANGE'>"
p400
sS'TT'
p401
S"<class 'gluon.html.TT'>"
p402
sS'T'
S'<gluon.languages.translator object>'
p403
sssS'traceback'
p404
S'Traceback (most recent call last):\n  File "/home/peace/web2py/gluon/restricted.py", line 227, in restricted\n    exec ccode in environment\n  File "/home/peace/web2py/applications/monitor/models/dbsetup.py", line 480, in <module>\n    db.assign.accessories_id.requires=IS_IN_DB(db(db.device_accessories.is_active == True),db.device_accessories.id, \'%(name)s\')\nAttributeError: \'Table\' object has no attribute \'accessories_id\'\n'
p405
s.