(dp1
S'output'
p2
S"<type 'exceptions.NameError'> global name 'query' is not defined"
p3
sS'layer'
p4
S'/home/nyeinchan/web2py/applications/monitor/controllers/default.py'
p5
sS'code'
p6
S'# -*- coding: utf-8 -*-\n# this file is released under public domain and you can use without limitations\n\n#########################################################################\n## This is a sample controller\n## - index is the default action of any application\n## - user is required for authentication and authorization\n## - download is for downloading files uploaded in the db (does streaming)\n#########################################################################\n\n@auth.requires_login()\ndef index():\n    """\n    example action using the internationalization operator T and flash\n    rendered by views/default/index.html or views/generic.html\n\n    if you need a simple wiki simply replace the two lines below with:\n    return auth.wiki()\n    """\n    response.flash = T("Welcome")\n    return dict(message=T(\'Welcome to web2py!\'))\n\n\ndef about():\n    return dict(message="This is about")\n\ndef brand():\n    grid = SQLFORM.smartgrid(\n        db.brand,\n        paginate=20,\n        csv=False\n    )\n\n    response.moduleTitle = \'Brand\'\n    return dict(form=grid)\n    ##data = db().select(db.brand.ALL, orderby=~db.brand.id)\n    ##return dict(form=SQLFORM(db.brand).process(), data=data)\n\ndef model():\n    db.model.brand.requires=IS_IN_DB(db, db.brand.id, \'%(name)s\')\n    grid = SQLFORM.smartgrid(\n        db.model,\n        paginate=10,\n        csv=False\n    )\n    # grid=SQLFORM(db.model).process()\n    response.moduleTitle = \'Model\'\n    return dict(form=grid)\n\ndef general_table():\n    db.general_table.config_type.requires=IS_IN_DB(db(query).select(config_type=\'Location\'), db.config_group.id, \'%(name)s\')\n    grid = SQLFORM.smartgrid(\n        db.general_table,\n        paginate=20,\n        csv=False\n    )\n\n    response.moduleTitle = \'Genral Set up\'\n    return dict(form=grid)\n\ndef sim():\n    db.sim.brand_type.requires=IS_IN_DB(db(query).select(config_type=\'Operator\'), db.config_group.id, \'%(name)s\')\n    db.sim.plan_type.requires=IS_IN_DB(db(query).select(config_type=\'Plan\'), db.config_group.id, \'%(name)s\')\n    grid = SQLFORM.smartgrid(\n        db.sim,\n        paginate=20,\n        csv=False\n    )\n\n    response.moduleTitle = \'Genral Set up\'\n    return dict(form=grid)\n\ndef room():\n    db.room.config.requires=IS_IN_DB(db, db.general_table.id, \'%(name)s\')\n    grid = SQLFORM.smartgrid(\n        db.room,\n        paginate=20,\n        csv=False\n    )\n\n    response.moduleTitle = \'Room\'\n    return dict(form=grid)\n\ndef user():\n    """\n    exposes:\n    http://..../[app]/default/user/login\n    http://..../[app]/default/user/logout\n    http://..../[app]/default/user/register\n    http://..../[app]/default/user/profile\n    http://..../[app]/default/user/retrieve_password\n    http://..../[app]/default/user/change_password\n    http://..../[app]/default/user/bulk_register\n    use @auth.requires_login()\n        @auth.requires_membership(\'group name\')\n        @auth.requires_permission(\'read\',\'table name\',record_id)\n    to decorate functions that need access control\n    also notice there is http://..../[app]/appadmin/manage/auth to allow administrator to manage users\n    """\n    return dict(form=auth())\n\n\n\n\n@cache.action()\ndef download():\n    """\n    allows downloading of uploaded files\n    http://..../[app]/default/download/[filename]\n    """\n    return response.download(request, db)\n\n\ndef call():\n    """\n    exposes services. for example:\n    http://..../[app]/default/call/jsonrpc\n    decorate with @services.jsonrpc the functions to expose\n    supports xml, json, xmlrpc, jsonrpc, amfrpc, rss, csv\n    """\n    return service()\n\nresponse._vars=response._caller(general_table)\n'
p7
sS'snapshot'
p8
(dp9
sS'traceback'
p10
S'Traceback (most recent call last):\n  File "/home/nyeinchan/web2py/gluon/restricted.py", line 227, in restricted\n    exec ccode in environment\n  File "/home/nyeinchan/web2py/applications/monitor/controllers/default.py", line 123, in <module>\n  File "/home/nyeinchan/web2py/gluon/globals.py", line 417, in <lambda>\n    self._caller = lambda f: f()\n  File "/home/nyeinchan/web2py/applications/monitor/controllers/default.py", line 51, in general_table\n    db.general_table.config_type.requires=IS_IN_DB(db(query).select(config_type=\'Location\'), db.config_group.id, \'%(name)s\')\nNameError: global name \'query\' is not defined\n'
p11
s.