(dp1
S'output'
p2
S"<type 'exceptions.TypeError'> can't pickle function objects"
p3
sS'layer'
p4
S'/home/nyeinchan/web2py/applications/monitor/models/dbsetup.py'
p5
sS'code'
p6
S"from datetime import datetime\n\n## brand\ndb.define_table('brand',\n\tField('name', 'string', requires=[IS_NOT_EMPTY()]),\n\tField('is_active', 'boolean', default=True),\n\tField('created_on', 'datetime', default=request.now,\n\t\t\treadable=True, writable=False),\n\tField('created_by', 'reference auth_user', default=auth.user_id,\n\t\t\treadable=True, writable=False),\n\tField('modified_on', 'datetime', update=request.now,\n\t\t\treadable=True, writable=False),\n\tField('modified_by', 'reference auth_user', update=auth.user_id,\n\t\t\treadable=True, writable=False))\n## Model\ndb.define_table('model',\n\tField('name', 'string', requires=[IS_NOT_EMPTY()]),\n\tField('brand', db.brand, Field('id'), requires=[IS_NOT_EMPTY()]),\n\tField('is_active', 'boolean', default=True),\n\tField('created_on', 'datetime', default=request.now,\n\t\t\treadable=True, writable=False),\n\tField('created_by', 'reference auth_user', default=auth.user_id,\n\t\t\treadable=True, writable=False),\n\tField('modified_on', 'datetime', update=request.now,\n\t\t\treadable=True, writable=False),\n\tField('modified_by', 'reference auth_user', update=auth.user_id,\n\t\t\treadable=True, writable=False))\n\n## apps\ndb.define_table('apps',\n\tField('name', 'string', requires=[IS_NOT_EMPTY()]),\n\tField('is_active', 'boolean', default=True),\n\tField('created_on', 'datetime', default=request.now,\n\t\t\treadable=True, writable=False),\n\tField('created_by', 'reference auth_user', default=auth.user_id,\n\t\t\treadable=True, writable=False),\n\tField('modified_on', 'datetime', update=request.now,\n\t\t\treadable=True, writable=False),\n\tField('modified_by', 'reference auth_user', update=auth.user_id,\n\t\t\treadable=True, writable=False))\n\n## employee\ndb.define_table('employee',\n\tField('name', 'string', requires=[IS_NOT_EMPTY()]),\n\tField('job_title', 'string'),\n\tField('department', 'string'),\n\tField('email', 'string', requires=[IS_NOT_EMPTY(), IS_EMAIL()]),\n\tField('is_active', 'boolean', default=True),\n\tField('created_on', 'datetime', default=request.now,\n\t\t\treadable=True, writable=False),\n\tField('created_by', 'reference auth_user', default=auth.user_id,\n\t\t\treadable=True, writable=False),\n\tField('modified_on', 'datetime', update=request.now,\n\t\t\treadable=True, writable=False),\n\tField('modified_by', 'reference auth_user', update=auth.user_id,\n\t\t\treadable=True, writable=False))\n\n## default user root\nif db(db.auth_user).count() <1:\n\tdb.auth_group.bulk_insert([\n\t\tdict(role='Admin', description='System user'),\n\t\tdict(role='Manager', description='Manager'),\n\t\tdict(role='User', description='User')\n\t])\n\n\tdb.auth_user.bulk_insert([\n\t\tdict(\n\t\t\tfirst_name='System',\n\t\t\tlast_name='Admin',\n\t\t\temail='root@coca-cola.com.mm',\n\t\t\tpassword=db.auth_user.password.validate('C0ke@12345')[0]\n\t\t),\n\t\tdict(\n\t\t\tfirst_name='Nyein',\n\t\t\tlast_name='Chan',\n\t\t\temail='nyeinchan@coca-cola.com.mm',\n\t\t\tpassword=db.auth_user.password.validate('Basn4@C01')[0]\n\t\t)\n\t])\n\n\tauth.add_membership(user_id=1, group_id=1)\n\tauth.add_membership(user_id=2, group_id=1)\n"
p7
sS'snapshot'
p8
(dp9
S'exception'
p10
(dp11
S'__hash__'
p12
S"<method-wrapper '__hash__' of exceptions.TypeError object>"
p13
sS'__setattr__'
p14
S"<method-wrapper '__setattr__' of exceptions.TypeError object>"
p15
sS'__reduce_ex__'
p16
S'<built-in method __reduce_ex__ of exceptions.TypeError object>'
p17
sS'__getslice__'
p18
S"<method-wrapper '__getslice__' of exceptions.TypeError object>"
p19
sS'__getitem__'
p20
S"<method-wrapper '__getitem__' of exceptions.TypeError object>"
p21
sS'__setstate__'
p22
S'<built-in method __setstate__ of exceptions.TypeError object>'
p23
sS'args'
p24
S'("can\'t pickle function objects",)'
p25
sS'__reduce__'
p26
S'<built-in method __reduce__ of exceptions.TypeError object>'
p27
sS'__str__'
p28
S"<method-wrapper '__str__' of exceptions.TypeError object>"
p29
sS'__format__'
p30
S'<built-in method __format__ of exceptions.TypeError object>'
p31
sS'__getattribute__'
p32
S"<method-wrapper '__getattribute__' of exceptions.TypeError object>"
p33
sS'__class__'
p34
S"<type 'exceptions.TypeError'>"
p35
sS'__unicode__'
p36
S'<built-in method __unicode__ of exceptions.TypeError object>'
p37
sS'__delattr__'
p38
S"<method-wrapper '__delattr__' of exceptions.TypeError object>"
p39
sS'__subclasshook__'
p40
S'<built-in method __subclasshook__ of type object>'
p41
sS'__repr__'
p42
S"<method-wrapper '__repr__' of exceptions.TypeError object>"
p43
sS'__dict__'
p44
S'{}'
p45
sS'__sizeof__'
p46
S'<built-in method __sizeof__ of exceptions.TypeError object>'
p47
sS'__doc__'
p48
S"'Inappropriate argument type.'"
p49
sS'__init__'
p50
S"<method-wrapper '__init__' of exceptions.TypeError object>"
p51
sS'__new__'
p52
S'<built-in method __new__ of type object>'
p53
ssS'evalue'
p54
S"can't pickle function objects"
p55
sS'request'
p56
cgluon.html
XML_unpickle
p57
(S's\x8f^\x00\x00<div><table><tr><td style="font-weight:bold;vertical-align:top;">ajax</td><td style="vertical-align:top;">:</td><td><div>False</div></td></tr><tr><td style="font-weight:bold;vertical-align:top;">application</td><td style="vertical-align:top;">:</td><td><div>monitor</div></td></tr><tr><td style="font-weight:bold;vertical-align:top;">args</td><td style="vertical-align:top;">:</td><td><div><table><tr><td><div>brand</div></td></tr></table></div></td></tr><tr><td style="font-weight:bold;vertical-align:top;">cid</td><td style="vertical-align:top;">:</td><td><div>None</div></td></tr><tr><td style="font-weight:bold;vertical-align:top;">client</td><td style="vertical-align:top;">:</td><td><div>127.0.0.1</div></td></tr><tr><td style="font-weight:bold;vertical-align:top;">controller</td><td style="vertical-align:top;">:</td><td><div>default</div></td></tr><tr><td style="font-weight:bold;vertical-align:top;">cookies</td><td style="vertical-align:top;">:</td><td><div><table><tr><td style="font-weight:bold;vertical-align:top;">session_id_admin</td><td style="vertical-align:top;">:</td><td><div>127.0.0.1-2464d0bb-5c63-4e4a-bfa4-2af7ec68e12c<table><tr><td style="font-weight:bold;vertical-align:top;">comment</td><td style="vertical-align:top;">:</td><td><div></div></td></tr><tr><td style="font-weight:bold;vertical-align:top;">domain</td><td style="vertical-align:top;">:</td><td><div></div></td></tr><tr><td style="font-weight:bold;vertical-align:top;">expires</td><td style="vertical-align:top;">:</td><td><div></div></td></tr><tr><td style="font-weight:bold;vertical-align:top;">httponly</td><td style="vertical-align:top;">:</td><td><div></div></td></tr><tr><td style="font-weight:bold;vertical-align:top;">max-age</td><td style="vertical-align:top;">:</td><td><div></div></td></tr><tr><td style="font-weight:bold;vertical-align:top;">path</td><td style="vertical-align:top;">:</td><td><div></div></td></tr><tr><td style="font-weight:bold;vertical-align:top;">secure</td><td style="vertical-align:top;">:</td><td><div></div></td></tr><tr><td style="font-weight:bold;vertical-align:top;">version</td><td style="vertical-align:top;">:</td><td><div></div></td></tr></table></div></td></tr><tr><td style="font-weight:bold;vertical-align:top;">session_id_monitor</td><td style="vertical-align:top;">:</td><td><div>127.0.0.1-269bc736-497e-4485-be14-e7c146b8403d<table><tr><td style="font-weight:bold;vertical-align:top;">comment</td><td style="vertical-align:top;">:</td><td><div></div></td></tr><tr><td style="font-weight:bold;vertical-align:top;">domain</td><td style="vertical-align:top;">:</td><td><div></div></td></tr><tr><td style="font-weight:bold;vertical-align:top;">expires</td><td style="vertical-align:top;">:</td><td><div></div></td></tr><tr><td style="font-weight:bold;vertical-align:top;">httponly</td><td style="vertical-align:top;">:</td><td><div></div></td></tr><tr><td style="font-weight:bold;vertical-align:top;">max-age</td><td style="vertical-align:top;">:</td><td><div></div></td></tr><tr><td style="font-weight:bold;vertical-align:top;">path</td><td style="vertical-align:top;">:</td><td><div></div></td></tr><tr><td style="font-weight:bold;vertical-align:top;">secure</td><td style="vertical-align:top;">:</td><td><div></div></td></tr><tr><td style="font-weight:bold;vertical-align:top;">version</td><td style="vertical-align:top;">:</td><td><div></div></td></tr></table></div></td></tr><tr><td style="font-weight:bold;vertical-align:top;">session_id_welcome</td><td style="vertical-align:top;">:</td><td><div>127.0.0.1-35922ae2-f031-4335-9590-0d3d41dbf08f<table><tr><td style="font-weight:bold;vertical-align:top;">comment</td><td style="vertical-align:top;">:</td><td><div></div></td></tr><tr><td style="font-weight:bold;vertical-align:top;">domain</td><td style="vertical-align:top;">:</td><td><div></div></td></tr><tr><td style="font-weight:bold;vertical-align:top;">expires</td><td style="vertical-align:top;">:</td><td><div></div></td></tr><tr><td style="font-weight:bold;vertical-align:top;">httponly</td><td style="vertical-align:top;">:</td><td><div></div></td></tr><tr><td style="font-weight:bold;vertical-align:top;">max-age</td><td style="vertical-align:top;">:</td><td><div></div></td></tr><tr><td style="font-weight:bold;vertical-align:top;">path</td><td style="vertical-align:top;">:</td><td><div></div></td></tr><tr><td style="font-weight:bold;vertical-align:top;">secure</td><td style="vertical-align:top;">:</td><td><div></div></td></tr><tr><td style="font-weight:bold;vertical-align:top;">version</td><td style="vertical-align:top;">:</td><td><div></div></td></tr></table></div></td></tr></table></div></td></tr><tr><td style="font-weight:bold;vertical-align:top;">env</td><td style="vertical-align:top;">:</td><td><div><table><tr><td style="font-weight:bold;vertical-align:top;">HTTP_ACCEPT</td><td style="vertical-align:top;">:</td><td><div>text/html,application/xhtml+xml,application/xml;q=0.9,image/webp,*/*;q=0.8</div></td></tr><tr><td style="font-weight:bold;vertical-align:top;">HTTP_ACCEPT_ENCODING</td><td style="vertical-align:top;">:</td><td><div>gzip, deflate, sdch</div></td></tr><tr><td style="font-weight:bold;vertical-align:top;">HTTP_ACCEPT_LANGUAGE</td><td style="vertical-align:top;">:</td><td><div>en-US,en;q=0.8</div></td></tr><tr><td style="font-weight:bold;vertical-align:top;">HTTP_CACHE_CONTROL</td><td style="vertical-align:top;">:</td><td><div>max-age=0</div></td></tr><tr><td style="font-weight:bold;vertical-align:top;">HTTP_CONNECTION</td><td style="vertical-align:top;">:</td><td><div>keep-alive</div></td></tr><tr><td style="font-weight:bold;vertical-align:top;">HTTP_COOKIE</td><td style="vertical-align:top;">:</td><td><div>session_id_welcome=127.0.0.1-35922ae2-f031-4335-9590-0d3d41dbf08f; session_id_admin=127.0.0.1-2464d0bb-5c63-4e4a-bfa4-2af7ec68e12c; session_id_monitor=127.0.0.1-269bc736-497e-4485-be14-e7c146b8403d</div></td></tr><tr><td style="font-weight:bold;vertical-align:top;">HTTP_HOST</td><td style="vertical-align:top;">:</td><td><div>localhost:8000</div></td></tr><tr><td style="font-weight:bold;vertical-align:top;">HTTP_REFERER</td><td style="vertical-align:top;">:</td><td><div>http://localhost:8000/monitor/default/brand/brand/edit/brand/2?keywords=&amp;_signature=99614aac2895013ee252c3646acda3662f0edcff</div></td></tr><tr><td style="font-weight:bold;vertical-align:top;">HTTP_UPGRADE_INSECURE_REQUESTS</td><td style="vertical-align:top;">:</td><td><div>1</div></td></tr><tr><td style="font-weight:bold;vertical-align:top;">HTTP_USER_AGENT</td><td style="vertical-align:top;">:</td><td><div>Mozilla/5.0 (X11; Linux x86_64) AppleWebKit/537.36 (KHTML, like Gecko) Chrome/53.0.2785.101 Safari/537.36</div></td></tr><tr><td style="font-weight:bold;vertical-align:top;">PATH_INFO</td><td style="vertical-align:top;">:</td><td><div>/monitor/default/brand/brand</div></td></tr><tr><td style="font-weight:bold;vertical-align:top;">QUERY_STRING</td><td style="vertical-align:top;">:</td><td><div>keywords=&amp;_signature=9e54630eabde78dbf86b7bae22191dab598340cd</div></td></tr><tr><td style="font-weight:bold;vertical-align:top;">REMOTE_ADDR</td><td style="vertical-align:top;">:</td><td><div>127.0.0.1</div></td></tr><tr><td style="font-weight:bold;vertical-align:top;">REMOTE_PORT</td><td style="vertical-align:top;">:</td><td><div>33044</div></td></tr><tr><td style="font-weight:bold;vertical-align:top;">REQUEST_METHOD</td><td style="vertical-align:top;">:</td><td><div>GET</div></td></tr><tr><td style="font-weight:bold;vertical-align:top;">SCRIPT_NAME</td><td style="vertical-align:top;">:</td><td><div></div></td></tr><tr><td style="font-weight:bold;vertical-align:top;">SERVER_NAME</td><td style="vertical-align:top;">:</td><td><div>HTY-L-PC09DD2CU</div></td></tr><tr><td style="font-weight:bold;vertical-align:top;">SERVER_PORT</td><td style="vertical-align:top;">:</td><td><div>8000</div></td></tr><tr><td style="font-weight:bold;vertical-align:top;">SERVER_PROTOCOL</td><td style="vertical-align:top;">:</td><td><div>HTTP/1.1</div></td></tr><tr><td style="font-weight:bold;vertical-align:top;">SERVER_SOFTWARE</td><td style="vertical-align:top;">:</td><td><div>Rocket 1.2.6</div></td></tr><tr><td style="font-weight:bold;vertical-align:top;">app_folders</td><td style="vertical-align:top;">:</td><td><div>set([&#x27;/home/nyeinchan/web2py/applications/wBlog/&#x27;, &#x27;/home/nyeinchan/web2py/applications/admin/&#x27;, &#x27;/home/nyeinchan/web2py/applications/monitor/&#x27;, &#x27;/home/nyeinchan/web2py/applications/welcome/&#x27;])</div></td></tr><tr><td style="font-weight:bold;vertical-align:top;">applications_parent</td><td style="vertical-align:top;">:</td><td><div>/home/nyeinchan/web2py</div></td></tr><tr><td style="font-weight:bold;vertical-align:top;">cmd_args</td><td style="vertical-align:top;">:</td><td><div><table></table></div></td></tr><tr><td style="font-weight:bold;vertical-align:top;">cmd_options</td><td style="vertical-align:top;">:</td><td><div>&lt;Values at 0x7fe4b22fc638: {&#x27;verbose&#x27;: False, &#x27;ip&#x27;: &#x27;127.0.0.1&#x27;, &#x27;debuglevel&#x27;: 30, &#x27;with_scheduler&#x27;: False, &#x27;shutdown_timeout&#x27;: 5, &#x27;taskbar&#x27;: False, &#x27;with_coverage&#x27;: False, &#x27;pid_filename&#x27;: &#x27;httpserver.pid&#x27;, &#x27;maxthreads&#x27;: None, &#x27;softcron&#x27;: False, &#x27;server_name&#x27;: &#x27;HTY-L-PC09DD2CU&#x27;, &#x27;bpython&#x27;: False, &#x27;nogui&#x27;: False, &#x27;port&#x27;: 8000, &#x27;print_errors&#x27;: False, &#x27;extcron&#x27;: False, &#x27;runcron&#x27;: False, &#x27;run_system_tests&#x27;: False, &#x27;test&#x27;: None, &#x27;folder&#x27;: &#x27;/home/nyeinchan/web2py&#x27;, &#x27;config&#x27;: &#x27;&#x27;, &#x27;minthreads&#x27;: None, &#x27;shell&#x27;: None, &#x27;run&#x27;: &#x27;&#x27;, &#x27;log_filename&#x27;: &#x27;httpserver.log&#x27;, &#x27;profiler_dir&#x27;: None, &#x27;args&#x27;: [&#x27;&#x27;], &#x27;socket_timeout&#x27;: 5, &#x27;ssl_ca_certificate&#x27;: None, &#x27;scheduler&#x27;: None, &#x27;interfaces&#x27;: None, &#x27;ssl_private_key&#x27;: &#x27;&#x27;, &#x27;gae&#x27;: None, &#x27;password&#x27;: &#x27;******&#x27;, &#x27;request_queue_size&#x27;: 5, &#x27;ssl_certificate&#x27;: &#x27;&#x27;, &#x27;cronjob&#x27;: False, &#x27;numthreads&#x27;: None, &#x27;quiet&#x27;: False, &#x27;import_models&#x27;: False, &#x27;timeout&#x27;: 10, &#x27;plain&#x27;: False, &#x27;nobanner&#x27;: False}&gt;</div></td></tr><tr><td style="font-weight:bold;vertical-align:top;">db_sessions</td><td style="vertical-align:top;">:</td><td><div>set([])</div></td></tr><tr><td style="font-weight:bold;vertical-align:top;">debugging</td><td style="vertical-align:top;">:</td><td><div>False</div></td></tr><tr><td style="font-weight:bold;vertical-align:top;">gluon_parent</td><td style="vertical-align:top;">:</td><td><div>/home/nyeinchan/web2py</div></td></tr><tr><td style="font-weight:bold;vertical-align:top;">http_accept</td><td style="vertical-align:top;">:</td><td><div>text/html,application/xhtml+xml,application/xml;q=0.9,image/webp,*/*;q=0.8</div></td></tr><tr><td style="font-weight:bold;vertical-align:top;">http_accept_encoding</td><td style="vertical-align:top;">:</td><td><div>gzip, deflate, sdch</div></td></tr><tr><td style="font-weight:bold;vertical-align:top;">http_accept_language</td><td style="vertical-align:top;">:</td><td><div>en-US,en;q=0.8</div></td></tr><tr><td style="font-weight:bold;vertical-align:top;">http_cache_control</td><td style="vertical-align:top;">:</td><td><div>max-age=0</div></td></tr><tr><td style="font-weight:bold;vertical-align:top;">http_connection</td><td style="vertical-align:top;">:</td><td><div>keep-alive</div></td></tr><tr><td style="font-weight:bold;vertical-align:top;">http_cookie</td><td style="vertical-align:top;">:</td><td><div>session_id_welcome=127.0.0.1-35922ae2-f031-4335-9590-0d3d41dbf08f; session_id_admin=127.0.0.1-2464d0bb-5c63-4e4a-bfa4-2af7ec68e12c; session_id_monitor=127.0.0.1-269bc736-497e-4485-be14-e7c146b8403d</div></td></tr><tr><td style="font-weight:bold;vertical-align:top;">http_host</td><td style="vertical-align:top;">:</td><td><div>localhost:8000</div></td></tr><tr><td style="font-weight:bold;vertical-align:top;">http_referer</td><td style="vertical-align:top;">:</td><td><div>http://localhost:8000/monitor/default/brand/brand/edit/brand/2?keywords=&amp;_signature=99614aac2895013ee252c3646acda3662f0edcff</div></td></tr><tr><td style="font-weight:bold;vertical-align:top;">http_upgrade_insecure_requests</td><td style="vertical-align:top;">:</td><td><div>1</div></td></tr><tr><td style="font-weight:bold;vertical-align:top;">http_user_agent</td><td style="vertical-align:top;">:</td><td><div>Mozilla/5.0 (X11; Linux x86_64) AppleWebKit/537.36 (KHTML, like Gecko) Chrome/53.0.2785.101 Safari/537.36</div></td></tr><tr><td style="font-weight:bold;vertical-align:top;">is_jython</td><td style="vertical-align:top;">:</td><td><div>False</div></td></tr><tr><td style="font-weight:bold;vertical-align:top;">is_pypy</td><td style="vertical-align:top;">:</td><td><div>False</div></td></tr><tr><td style="font-weight:bold;vertical-align:top;">is_source</td><td style="vertical-align:top;">:</td><td><div>True</div></td></tr><tr><td style="font-weight:bold;vertical-align:top;">local_hosts</td><td style="vertical-align:top;">:</td><td><div><table><tr><td><div>HTY-L-PC09DD2CU</div></td></tr><tr><td><div>::1</div></td></tr><tr><td><div>127.0.1.1</div></td></tr><tr><td><div>::ffff:127.0.0.1</div></td></tr><tr><td><div>127.0.0.1</div></td></tr></table></div></td></tr><tr><td style="font-weight:bold;vertical-align:top;">path_info</td><td style="vertical-align:top;">:</td><td><div>/monitor/default/brand/brand</div></td></tr><tr><td style="font-weight:bold;vertical-align:top;">query_string</td><td style="vertical-align:top;">:</td><td><div>keywords=&amp;_signature=9e54630eabde78dbf86b7bae22191dab598340cd</div></td></tr><tr><td style="font-weight:bold;vertical-align:top;">remote_addr</td><td style="vertical-align:top;">:</td><td><div>127.0.0.1</div></td></tr><tr><td style="font-weight:bold;vertical-align:top;">remote_port</td><td style="vertical-align:top;">:</td><td><div>33044</div></td></tr><tr><td style="font-weight:bold;vertical-align:top;">request_method</td><td style="vertical-align:top;">:</td><td><div>GET</div></td></tr><tr><td style="font-weight:bold;vertical-align:top;">request_uri</td><td style="vertical-align:top;">:</td><td><div>/monitor/default/brand/brand?keywords=&amp;_signature=9e54630eabde78dbf86b7bae22191dab598340cd</div></td></tr><tr><td style="font-weight:bold;vertical-align:top;">script_name</td><td style="vertical-align:top;">:</td><td><div></div></td></tr><tr><td style="font-weight:bold;vertical-align:top;">server_name</td><td style="vertical-align:top;">:</td><td><div>HTY-L-PC09DD2CU</div></td></tr><tr><td style="font-weight:bold;vertical-align:top;">server_port</td><td style="vertical-align:top;">:</td><td><div>8000</div></td></tr><tr><td style="font-weight:bold;vertical-align:top;">server_protocol</td><td style="vertical-align:top;">:</td><td><div>HTTP/1.1</div></td></tr><tr><td style="font-weight:bold;vertical-align:top;">server_software</td><td style="vertical-align:top;">:</td><td><div>Rocket 1.2.6</div></td></tr><tr><td style="font-weight:bold;vertical-align:top;">web2py_path</td><td style="vertical-align:top;">:</td><td><div>/home/nyeinchan/web2py</div></td></tr><tr><td style="font-weight:bold;vertical-align:top;">web2py_version</td><td style="vertical-align:top;">:</td><td><div>2.14.6-stable+timestamp.2016.05.10.00.21.47</div></td></tr><tr><td style="font-weight:bold;vertical-align:top;">wsgi.errors</td><td style="vertical-align:top;">:</td><td><div>&lt;open file &#x27;&lt;stderr&gt;&#x27;, mode &#x27;w&#x27; at 0x7fe4b781a1e0&gt;</div></td></tr><tr><td style="font-weight:bold;vertical-align:top;">wsgi.file_wrapper</td><td style="vertical-align:top;">:</td><td><div>&lt;class wsgiref.util.FileWrapper at 0x7fe4b353fae0&gt;</div></td></tr><tr><td style="font-weight:bold;vertical-align:top;">wsgi.input</td><td style="vertical-align:top;">:</td><td><div>&lt;socket._fileobject object at 0x7fe4b1d2b450&gt;</div></td></tr><tr><td style="font-weight:bold;vertical-align:top;">wsgi.multiprocess</td><td style="vertical-align:top;">:</td><td><div>False</div></td></tr><tr><td style="font-weight:bold;vertical-align:top;">wsgi.multithread</td><td style="vertical-align:top;">:</td><td><div>True</div></td></tr><tr><td style="font-weight:bold;vertical-align:top;">wsgi.run_once</td><td style="vertical-align:top;">:</td><td><div>False</div></td></tr><tr><td style="font-weight:bold;vertical-align:top;">wsgi.url_scheme</td><td style="vertical-align:top;">:</td><td><div>http</div></td></tr><tr><td style="font-weight:bold;vertical-align:top;">wsgi.version</td><td style="vertical-align:top;">:</td><td><div><table><tr><td><div>1</div></td></tr><tr><td><div>0</div></td></tr></table></div></td></tr><tr><td style="font-weight:bold;vertical-align:top;">wsgi_errors</td><td style="vertical-align:top;">:</td><td><div>&lt;open file &#x27;&lt;stderr&gt;&#x27;, mode &#x27;w&#x27; at 0x7fe4b781a1e0&gt;</div></td></tr><tr><td style="font-weight:bold;vertical-align:top;">wsgi_file_wrapper</td><td style="vertical-align:top;">:</td><td><div>&lt;class wsgiref.util.FileWrapper at 0x7fe4b353fae0&gt;</div></td></tr><tr><td style="font-weight:bold;vertical-align:top;">wsgi_input</td><td style="vertical-align:top;">:</td><td><div>&lt;socket._fileobject object at 0x7fe4b1d2b450&gt;</div></td></tr><tr><td style="font-weight:bold;vertical-align:top;">wsgi_multiprocess</td><td style="vertical-align:top;">:</td><td><div>False</div></td></tr><tr><td style="font-weight:bold;vertical-align:top;">wsgi_multithread</td><td style="vertical-align:top;">:</td><td><div>True</div></td></tr><tr><td style="font-weight:bold;vertical-align:top;">wsgi_run_once</td><td style="vertical-align:top;">:</td><td><div>False</div></td></tr><tr><td style="font-weight:bold;vertical-align:top;">wsgi_url_scheme</td><td style="vertical-align:top;">:</td><td><div>http</div></td></tr><tr><td style="font-weight:bold;vertical-align:top;">wsgi_version</td><td style="vertical-align:top;">:</td><td><div><table><tr><td><div>1</div></td></tr><tr><td><div>0</div></td></tr></table></div></td></tr></table></div></td></tr><tr><td style="font-weight:bold;vertical-align:top;">extension</td><td style="vertical-align:top;">:</td><td><div>html</div></td></tr><tr><td style="font-weight:bold;vertical-align:top;">folder</td><td style="vertical-align:top;">:</td><td><div>/home/nyeinchan/web2py/applications/monitor/</div></td></tr><tr><td style="font-weight:bold;vertical-align:top;">function</td><td style="vertical-align:top;">:</td><td><div>brand</div></td></tr><tr><td style="font-weight:bold;vertical-align:top;">global_settings</td><td style="vertical-align:top;">:</td><td><div><table><tr><td style="font-weight:bold;vertical-align:top;">app_folders</td><td style="vertical-align:top;">:</td><td><div>set([&#x27;/home/nyeinchan/web2py/applications/wBlog/&#x27;, &#x27;/home/nyeinchan/web2py/applications/admin/&#x27;, &#x27;/home/nyeinchan/web2py/applications/monitor/&#x27;, &#x27;/home/nyeinchan/web2py/applications/welcome/&#x27;])</div></td></tr><tr><td style="font-weight:bold;vertical-align:top;">applications_parent</td><td style="vertical-align:top;">:</td><td><div>/home/nyeinchan/web2py</div></td></tr><tr><td style="font-weight:bold;vertical-align:top;">cmd_args</td><td style="vertical-align:top;">:</td><td><div><table></table></div></td></tr><tr><td style="font-weight:bold;vertical-align:top;">cmd_options</td><td style="vertical-align:top;">:</td><td><div>&lt;Values at 0x7fe4b22fc638: {&#x27;verbose&#x27;: False, &#x27;ip&#x27;: &#x27;127.0.0.1&#x27;, &#x27;debuglevel&#x27;: 30, &#x27;with_scheduler&#x27;: False, &#x27;shutdown_timeout&#x27;: 5, &#x27;taskbar&#x27;: False, &#x27;with_coverage&#x27;: False, &#x27;pid_filename&#x27;: &#x27;httpserver.pid&#x27;, &#x27;maxthreads&#x27;: None, &#x27;softcron&#x27;: False, &#x27;server_name&#x27;: &#x27;HTY-L-PC09DD2CU&#x27;, &#x27;bpython&#x27;: False, &#x27;nogui&#x27;: False, &#x27;port&#x27;: 8000, &#x27;print_errors&#x27;: False, &#x27;extcron&#x27;: False, &#x27;runcron&#x27;: False, &#x27;run_system_tests&#x27;: False, &#x27;test&#x27;: None, &#x27;folder&#x27;: &#x27;/home/nyeinchan/web2py&#x27;, &#x27;config&#x27;: &#x27;&#x27;, &#x27;minthreads&#x27;: None, &#x27;shell&#x27;: None, &#x27;run&#x27;: &#x27;&#x27;, &#x27;log_filename&#x27;: &#x27;httpserver.log&#x27;, &#x27;profiler_dir&#x27;: None, &#x27;args&#x27;: [&#x27;&#x27;], &#x27;socket_timeout&#x27;: 5, &#x27;ssl_ca_certificate&#x27;: None, &#x27;scheduler&#x27;: None, &#x27;interfaces&#x27;: None, &#x27;ssl_private_key&#x27;: &#x27;&#x27;, &#x27;gae&#x27;: None, &#x27;password&#x27;: &#x27;******&#x27;, &#x27;request_queue_size&#x27;: 5, &#x27;ssl_certificate&#x27;: &#x27;&#x27;, &#x27;cronjob&#x27;: False, &#x27;numthreads&#x27;: None, &#x27;quiet&#x27;: False, &#x27;import_models&#x27;: False, &#x27;timeout&#x27;: 10, &#x27;plain&#x27;: False, &#x27;nobanner&#x27;: False}&gt;</div></td></tr><tr><td style="font-weight:bold;vertical-align:top;">db_sessions</td><td style="vertical-align:top;">:</td><td><div>set([])</div></td></tr><tr><td style="font-weight:bold;vertical-align:top;">debugging</td><td style="vertical-align:top;">:</td><td><div>False</div></td></tr><tr><td style="font-weight:bold;vertical-align:top;">gluon_parent</td><td style="vertical-align:top;">:</td><td><div>/home/nyeinchan/web2py</div></td></tr><tr><td style="font-weight:bold;vertical-align:top;">is_jython</td><td style="vertical-align:top;">:</td><td><div>False</div></td></tr><tr><td style="font-weight:bold;vertical-align:top;">is_pypy</td><td style="vertical-align:top;">:</td><td><div>False</div></td></tr><tr><td style="font-weight:bold;vertical-align:top;">is_source</td><td style="vertical-align:top;">:</td><td><div>True</div></td></tr><tr><td style="font-weight:bold;vertical-align:top;">local_hosts</td><td style="vertical-align:top;">:</td><td><div><table><tr><td><div>HTY-L-PC09DD2CU</div></td></tr><tr><td><div>::1</div></td></tr><tr><td><div>127.0.1.1</div></td></tr><tr><td><div>::ffff:127.0.0.1</div></td></tr><tr><td><div>127.0.0.1</div></td></tr></table></div></td></tr><tr><td style="font-weight:bold;vertical-align:top;">web2py_version</td><td style="vertical-align:top;">:</td><td><div>2.14.6-stable+timestamp.2016.05.10.00.21.47</div></td></tr></table></div></td></tr><tr><td style="font-weight:bold;vertical-align:top;">is_https</td><td style="vertical-align:top;">:</td><td><div>False</div></td></tr><tr><td style="font-weight:bold;vertical-align:top;">is_local</td><td style="vertical-align:top;">:</td><td><div>True</div></td></tr><tr><td style="font-weight:bold;vertical-align:top;">is_restful</td><td style="vertical-align:top;">:</td><td><div>False</div></td></tr><tr><td style="font-weight:bold;vertical-align:top;">is_scheduler</td><td style="vertical-align:top;">:</td><td><div>False</div></td></tr><tr><td style="font-weight:bold;vertical-align:top;">is_shell</td><td style="vertical-align:top;">:</td><td><div>False</div></td></tr><tr><td style="font-weight:bold;vertical-align:top;">now</td><td style="vertical-align:top;">:</td><td><div>datetime.datetime(2016, 9, 13, 22, 37, 43, 922043)</div></td></tr><tr><td style="font-weight:bold;vertical-align:top;">raw_args</td><td style="vertical-align:top;">:</td><td><div>brand</div></td></tr><tr><td style="font-weight:bold;vertical-align:top;">raw_extension</td><td style="vertical-align:top;">:</td><td><div>None</div></td></tr><tr><td style="font-weight:bold;vertical-align:top;">url</td><td style="vertical-align:top;">:</td><td><div>/monitor/default/brand/brand</div></td></tr><tr><td style="font-weight:bold;vertical-align:top;">utcnow</td><td style="vertical-align:top;">:</td><td><div>datetime.datetime(2016, 9, 13, 16, 7, 43, 922066)</div></td></tr><tr><td style="font-weight:bold;vertical-align:top;">wsgi</td><td style="vertical-align:top;">:</td><td><div>&lt;gluon.main.LazyWSGI object at 0x7fe4860e2390&gt;</div></td></tr></table></div>'
tRp58
sS'frames'
p59
(lp60
(dp61
S'file'
p62
S'/home/nyeinchan/web2py/gluon/restricted.py'
p63
sS'dump'
p64
(dp65
S'environment'
p66
S"{'A': <class 'gluon.html.A'>, 'ANY_OF': <class 'gluon.validators.ANY_OF'>, 'ASSIGNJS': <function ASSIGNJS>, 'AppConfig': <function AppConfig>, 'Auth': <class 'gluon.tools.Auth'>, 'B': <class 'gluon.html.B'>, 'BEAUTIFY': <class 'gluon.html.BEAUTIFY'>, 'BODY': <class 'gluon.html.BODY'>, 'BR': <class 'gluon.html.BR'>, 'BUTTON': <class 'gluon.html.BUTTON'>, ...}"
p67
sS'ccode'
p68
S'<code object <module> at 0x7fe4b1d36930, file "/.../applications/monitor/models/dbsetup.py", line 1>'
p69
ssS'lnum'
p70
I227
sS'lines'
p71
(dp72
I224
S'            ccode = code'
p73
sI225
S'        else:'
p74
sI226
S'            ccode = compile2(code, layer)'
p75
sI227
S'        exec ccode in environment'
p76
sI228
S'    except HTTP:'
p77
sI229
S'        raise'
p78
sI230
S'    except RestrictedError:'
p79
sI231
S'        # do not encapsulate (obfuscate) the original RestrictedError'
p80
sI222
S'    try:'
p81
sI223
S'        if isinstance(code, types.CodeType):'
p82
ssS'call'
p83
S"(code='from datetime import datetime\\n\\n## brand\\ndb.defin...d=1)\\n\\tauth.add_membership(user_id=2, group_id=1)\\n', environment={'A': <class 'gluon.html.A'>, 'ANY_OF': <class 'gluon.validators.ANY_OF'>, 'ASSIGNJS': <function ASSIGNJS>, 'AppConfig': <function AppConfig>, 'Auth': <class 'gluon.tools.Auth'>, 'B': <class 'gluon.html.B'>, 'BEAUTIFY': <class 'gluon.html.BEAUTIFY'>, 'BODY': <class 'gluon.html.BODY'>, 'BR': <class 'gluon.html.BR'>, 'BUTTON': <class 'gluon.html.BUTTON'>, ...}, layer='/home/nyeinchan/web2py/applications/monitor/models/dbsetup.py')"
p84
sS'func'
p85
S'restricted'
p86
sa(dp87
g62
S'/home/nyeinchan/web2py/applications/monitor/models/dbsetup.py'
p88
sg64
(dp89
S'writable'
p90
S'undefined'
p91
sS'builtinTrue'
p92
S'True'
p93
sS'readable'
p94
g91
sS'builtinFalse'
p95
S'False'
p96
ssg70
I27
sg71
(dp97
I22
S"\tField('created_by', 'reference auth_user', default=auth.user_id,"
p98
sI23
S'\t\t\treadable=True, writable=False),'
p99
sI24
S"\tField('modified_on', 'datetime', update=request.now,"
p100
sI25
S'\t\t\treadable=True, writable=False),'
p101
sI26
S"\tField('modified_by', 'reference auth_user', update=auth.user_id,"
p102
sI27
S'\t\t\treadable=True, writable=False))'
p103
sI28
S''
sI29
S'## apps'
p104
sI30
S"db.define_table('apps',"
p105
sI31
S"\tField('name', 'string', requires=[IS_NOT_EMPTY()]),"
p106
ssg83
S'()'
p107
sg85
S'<module>'
p108
sa(dp109
g62
S'/home/nyeinchan/web2py/gluon/packages/dal/pydal/base.py'
p110
sg64
(dp111
S'fields'
p112
S'(<pydal.objects.Field object>, <pydal.objects.Field object>, <pydal.objects.Field object>, <pydal.objects.Field object>, <pydal.objects.Field object>, <pydal.objects.Field object>, <pydal.objects.Field object>)'
p113
sS'self'
p114
S'<DAL uri="mysql:******@localhost/devicesmonitor">'
p115
sS'args'
p116
g45
sS'tablename'
p117
S"'model'"
p118
sS'table'
p119
g91
sS'self.lazy_define_table'
p120
S'<bound method DAL.lazy_define_table of <DAL uri="mysql:******@localhost/devicesmonitor">>'
p121
ssg70
I834
sg71
(dp122
I832
S'            table = None'
p123
sI833
S'        else:'
p124
sI834
S'            table = self.lazy_define_table(tablename,*fields,**args)'
p125
sI835
S'        if not tablename in self.tables:'
p126
sI836
S'            self.tables.append(tablename)'
p127
sI837
S'        return table'
p128
sI838
S''
sI829
S'                    % (tablename,invalid_args))'
p129
sI830
S'        if self._lazy_tables and tablename not in self._LAZY_TABLES:'
p130
sI831
S'            self._LAZY_TABLES[tablename] = (tablename,fields,args)'
p131
ssg83
S'(self=<DAL uri="mysql:******@localhost/devicesmonitor">, tablename=\'model\', *fields=(<pydal.objects.Field object>, <pydal.objects.Field object>, <pydal.objects.Field object>, <pydal.objects.Field object>, <pydal.objects.Field object>, <pydal.objects.Field object>, <pydal.objects.Field object>), **args={})'
p132
sg85
S'define_table'
p133
sa(dp134
g62
S'/home/nyeinchan/web2py/gluon/packages/dal/pydal/base.py'
p135
sg64
(dp136
S'polymodel'
p137
S'None'
p138
ssg70
I873
sg71
(dp139
I868
S'            try:'
p140
sI869
S'                GLOBAL_LOCKER.acquire()'
p141
sI870
S'                self._lastsql = self._adapter.create_table('
p142
sI871
S'                    table,migrate=migrate,'
p143
sI872
S'                    fake_migrate=fake_migrate,'
p144
sI873
S'                    polymodel=polymodel)'
p145
sI874
S'            finally:'
p146
sI875
S'                GLOBAL_LOCKER.release()'
p147
sI876
S'        else:'
p148
sI877
S'            table._dbt = None'
p149
ssg83
S'(self=<DAL uri="mysql:******@localhost/devicesmonitor">, tablename=\'model\', *fields=(<pydal.objects.Field object>, <pydal.objects.Field object>, <pydal.objects.Field object>, <pydal.objects.Field object>, <pydal.objects.Field object>, <pydal.objects.Field object>, <pydal.objects.Field object>), **args={})'
p150
sg85
S'lazy_define_table'
p151
sa(dp152
g62
S'/home/nyeinchan/web2py/gluon/packages/dal/pydal/adapters/base.py'
p153
sg64
(dp154
S'fake_migrate'
p155
g96
ssg70
I510
sg71
(dp156
I512
S'        return query'
p157
sI513
S''
sI514
S'    def migrate_table('
p158
sI505
S'            if sql_fields != sql_fields_old:'
p159
sI506
S'                self.migrate_table('
p160
sI507
S'                    table,'
p161
sI508
S'                    sql_fields, sql_fields_old,'
p162
sI509
S'                    sql_fields_aux, None,'
p163
sI510
S'                    fake_migrate=fake_migrate'
p164
sI511
S'                    )'
p165
ssg83
S'(self=<pydal.adapters.mysql.MySQLAdapter object>, table=<Table model (id, name, brand, is_active, created_on, created_by, modified_on, modified_by)>, migrate=True, fake_migrate=False, polymodel=None)'
p166
sg85
S'create_table'
p167
sa(dp168
g62
S'/home/nyeinchan/web2py/gluon/packages/dal/pydal/adapters/base.py'
p169
sg64
(dp170
S'self.save_dbt'
p171
S'<bound method MySQLAdapter.save_dbt of <pydal.adapters.mysql.MySQLAdapter object>>'
p172
sS'self'
p173
S'<pydal.adapters.mysql.MySQLAdapter object>'
p174
sS'sql_fields_current'
p175
S"{'brand': {'length': <pydal.objects.Field object>, 'notnull': False, 'sortable': 3, 'sql': 'INT  , INDEX brand__idx (brand), FOREIGN KEY (brand) REFERENCES brand (id) ON DELETE CASCADE', 'type': 'reference brand', 'unique': False}, 'created_by': {'length': 512, 'notnull': False, 'sortable': 5, 'sql': 'INT  , INDEX created_by__idx (created_by), FOREI...d_by) REFERENCES auth_user (id) ON DELETE CASCADE', 'type': 'reference auth_user', 'unique': False}, 'created_on': {'length': 512, 'notnull': False, 'sortable': 4, 'sql': 'DATETIME', 'type': 'datetime', 'unique': False}, 'id': {'length': 512, 'notnull': False, 'sortable': 1, 'sql': 'INT AUTO_INCREMENT NOT NULL', 'type': 'id', 'unique': False}, 'is_active': {'length': 512, 'notnull': False, 'sortable': 3, 'sql': 'CHAR(1)', 'type': 'boolean', 'unique': False}, 'modified_by': {'length': 512, 'notnull': False, 'sortable': 7, 'sql': 'INT  , INDEX modified_by__idx (modified_by), FOR...d_by) REFERENCES auth_user (id) ON DELETE CASCADE', 'type': 'reference auth_user', 'unique': False}, 'modified_on': {'length': 512, 'notnull': False, 'sortable': 6, 'sql': 'DATETIME', 'type': 'datetime', 'unique': False}, 'name': {'length': 512, 'notnull': False, 'sortable': 2, 'sql': 'VARCHAR(512)', 'type': 'string', 'unique': False}}"
p176
sS'table'
p177
S'<Table model (id, name, brand, is_active, created_on, created_by, modified_on, modified_by)>'
p178
ssg70
I631
sg71
(dp179
I626
S'                        # in one transaction so we must commit'
p180
sI627
S'                        # partial transactions and'
p181
sI628
S'                        # update table._dbt after alter table.'
p182
sI629
S'                        if db._adapter.commit_on_alter_table:'
p183
sI630
S'                            db.commit()'
p184
sI631
S'                            self.save_dbt(table,sql_fields_current)'
p185
sI632
S"                            self.log('success!\\n', table)"
p186
sI633
S''
sI634
S'            elif metadata_change:'
p187
sI635
S'                self.save_dbt(table,sql_fields_current)'
p188
ssg83
S"(self=<pydal.adapters.mysql.MySQLAdapter object>, table=<Table model (id, name, brand, is_active, created_on, created_by, modified_on, modified_by)>, sql_fields={'brand': {'length': <pydal.objects.Field object>, 'notnull': False, 'sortable': 3, 'sql': 'INT  , INDEX brand__idx (brand), FOREIGN KEY (brand) REFERENCES brand (id) ON DELETE CASCADE', 'type': 'reference brand', 'unique': False}, 'created_by': {'length': 512, 'notnull': False, 'sortable': 6, 'sql': 'INT  , INDEX created_by__idx (created_by), FOREI...d_by) REFERENCES auth_user (id) ON DELETE CASCADE', 'type': 'reference auth_user', 'unique': False}, 'created_on': {'length': 512, 'notnull': False, 'sortable': 5, 'sql': 'DATETIME', 'type': 'datetime', 'unique': False}, 'id': {'length': 512, 'notnull': False, 'sortable': 1, 'sql': 'INT AUTO_INCREMENT NOT NULL', 'type': 'id', 'unique': False}, 'is_active': {'length': 512, 'notnull': False, 'sortable': 4, 'sql': 'CHAR(1)', 'type': 'boolean', 'unique': False}, 'modified_by': {'length': 512, 'notnull': False, 'sortable': 8, 'sql': 'INT  , INDEX modified_by__idx (modified_by), FOR...d_by) REFERENCES auth_user (id) ON DELETE CASCADE', 'type': 'reference auth_user', 'unique': False}, 'modified_on': {'length': 512, 'notnull': False, 'sortable': 7, 'sql': 'DATETIME', 'type': 'datetime', 'unique': False}, 'name': {'length': 512, 'notnull': False, 'sortable': 2, 'sql': 'VARCHAR(512)', 'type': 'string', 'unique': False}}, sql_fields_old={'created_by': {'length': 512, 'notnull': False, 'sortable': 5, 'sql': 'INT  , INDEX created_by__idx (created_by), FOREI...d_by) REFERENCES auth_user (id) ON DELETE CASCADE', 'type': 'reference auth_user', 'unique': False}, 'created_on': {'length': 512, 'notnull': False, 'sortable': 4, 'sql': 'DATETIME', 'type': 'datetime', 'unique': False}, 'id': {'length': 512, 'notnull': False, 'sortable': 1, 'sql': 'INT AUTO_INCREMENT NOT NULL', 'type': 'id', 'unique': False}, 'is_active': {'length': 512, 'notnull': False, 'sortable': 3, 'sql': 'CHAR(1)', 'type': 'boolean', 'unique': False}, 'modified_by': {'length': 512, 'notnull': False, 'sortable': 7, 'sql': 'INT  , INDEX modified_by__idx (modified_by), FOR...d_by) REFERENCES auth_user (id) ON DELETE CASCADE', 'type': 'reference auth_user', 'unique': False}, 'modified_on': {'length': 512, 'notnull': False, 'sortable': 6, 'sql': 'DATETIME', 'type': 'datetime', 'unique': False}, 'name': {'length': 512, 'notnull': False, 'sortable': 2, 'sql': 'VARCHAR(512)', 'type': 'string', 'unique': False}}, sql_fields_aux={'brand': {'sql': 'INT  , INDEX brand__idx (brand), FOREIGN KEY (brand) REFERENCES brand (id) ON DELETE CASCADE'}, 'created_by': {'sql': 'INT  , INDEX created_by__idx (created_by), FOREI...d_by) REFERENCES auth_user (id) ON DELETE CASCADE'}, 'created_on': {'sql': 'DATETIME'}, 'id': {'sql': 'INT AUTO_INCREMENT NOT NULL'}, 'is_active': {'sql': 'CHAR(1)'}, 'modified_by': {'sql': 'INT  , INDEX modified_by__idx (modified_by), FOR...d_by) REFERENCES auth_user (id) ON DELETE CASCADE'}, 'modified_on': {'sql': 'DATETIME'}, 'name': {'sql': 'VARCHAR(512)'}}, logfile=None, fake_migrate=False)"
p189
sg85
S'migrate_table'
p190
sa(dp191
g62
S'/home/nyeinchan/web2py/gluon/packages/dal/pydal/adapters/base.py'
p192
sg64
(dp193
S'pickle.dump'
p194
S'<built-in function dump>'
p195
sS'tfile'
p196
S'<pydal.contrib.portalocker.LockedFile object>'
p197
sS'sql_fields_current'
p198
S"{'brand': {'length': <pydal.objects.Field object>, 'notnull': False, 'sortable': 3, 'sql': 'INT  , INDEX brand__idx (brand), FOREIGN KEY (brand) REFERENCES brand (id) ON DELETE CASCADE', 'type': 'reference brand', 'unique': False}, 'created_by': {'length': 512, 'notnull': False, 'sortable': 5, 'sql': 'INT  , INDEX created_by__idx (created_by), FOREI...d_by) REFERENCES auth_user (id) ON DELETE CASCADE', 'type': 'reference auth_user', 'unique': False}, 'created_on': {'length': 512, 'notnull': False, 'sortable': 4, 'sql': 'DATETIME', 'type': 'datetime', 'unique': False}, 'id': {'length': 512, 'notnull': False, 'sortable': 1, 'sql': 'INT AUTO_INCREMENT NOT NULL', 'type': 'id', 'unique': False}, 'is_active': {'length': 512, 'notnull': False, 'sortable': 3, 'sql': 'CHAR(1)', 'type': 'boolean', 'unique': False}, 'modified_by': {'length': 512, 'notnull': False, 'sortable': 7, 'sql': 'INT  , INDEX modified_by__idx (modified_by), FOR...d_by) REFERENCES auth_user (id) ON DELETE CASCADE', 'type': 'reference auth_user', 'unique': False}, 'modified_on': {'length': 512, 'notnull': False, 'sortable': 6, 'sql': 'DATETIME', 'type': 'datetime', 'unique': False}, 'name': {'length': 512, 'notnull': False, 'sortable': 2, 'sql': 'VARCHAR(512)', 'type': 'string', 'unique': False}}"
p199
sS'global pickle'
p200
S"<module 'cPickle' (built-in)>"
p201
ssg70
I644
sg71
(dp202
I640
S"            self.log('success!\\n', table)"
p203
sI641
S''
sI642
S'    def save_dbt(self,table, sql_fields_current):'
p204
sI643
S"        tfile = self.file_open(table._dbt, 'wb')"
p205
sI644
S'        pickle.dump(sql_fields_current, tfile)'
p206
sI645
S'        self.file_close(tfile)'
p207
sI646
S''
sI647
S'    def LOWER(self, first):'
p208
sI648
S"        return 'LOWER(%s)' % self.expand(first)"
p209
sI639
S'            self.save_dbt(table,sql_fields_current)'
p210
ssg83
S"(self=<pydal.adapters.mysql.MySQLAdapter object>, table=<Table model (id, name, brand, is_active, created_on, created_by, modified_on, modified_by)>, sql_fields_current={'brand': {'length': <pydal.objects.Field object>, 'notnull': False, 'sortable': 3, 'sql': 'INT  , INDEX brand__idx (brand), FOREIGN KEY (brand) REFERENCES brand (id) ON DELETE CASCADE', 'type': 'reference brand', 'unique': False}, 'created_by': {'length': 512, 'notnull': False, 'sortable': 5, 'sql': 'INT  , INDEX created_by__idx (created_by), FOREI...d_by) REFERENCES auth_user (id) ON DELETE CASCADE', 'type': 'reference auth_user', 'unique': False}, 'created_on': {'length': 512, 'notnull': False, 'sortable': 4, 'sql': 'DATETIME', 'type': 'datetime', 'unique': False}, 'id': {'length': 512, 'notnull': False, 'sortable': 1, 'sql': 'INT AUTO_INCREMENT NOT NULL', 'type': 'id', 'unique': False}, 'is_active': {'length': 512, 'notnull': False, 'sortable': 3, 'sql': 'CHAR(1)', 'type': 'boolean', 'unique': False}, 'modified_by': {'length': 512, 'notnull': False, 'sortable': 7, 'sql': 'INT  , INDEX modified_by__idx (modified_by), FOR...d_by) REFERENCES auth_user (id) ON DELETE CASCADE', 'type': 'reference auth_user', 'unique': False}, 'modified_on': {'length': 512, 'notnull': False, 'sortable': 6, 'sql': 'DATETIME', 'type': 'datetime', 'unique': False}, 'name': {'length': 512, 'notnull': False, 'sortable': 2, 'sql': 'VARCHAR(512)', 'type': 'string', 'unique': False}})"
p211
sg85
S'save_dbt'
p212
sa(dp213
g62
S'/usr/lib/python2.7/copy_reg.py'
p214
sg64
(dp215
S'base.__name__'
p216
S"'function'"
p217
sS'base'
p218
S"<type 'function'>"
p219
sS'builtinTypeError'
p220
S"<type 'exceptions.TypeError'>"
p221
ssg70
I70
sg71
(dp222
I65
S'        base = object # not really reachable'
p223
sI66
S'    if base is object:'
p224
sI67
S'        state = None'
p225
sI68
S'    else:'
p226
sI69
S'        if base is self.__class__:'
p227
sI70
S'            raise TypeError, "can\'t pickle %s objects" % base.__name__'
p228
sI71
S'        state = base(self)'
p229
sI72
S'    args = (self.__class__, base, state)'
p230
sI73
S'    try:'
p231
sI74
S'        getstate = self.__getstate__'
p232
ssg83
S'(self=<function <lambda>>, proto=0)'
p233
sg85
S'_reduce_ex'
p234
sasS'pyver'
p235
S'Python 2.7.12: /usr/bin/python (prefix: /usr)'
p236
sS'session'
p237
g57
(S's\xf1\x08\x00\x00<div><table><tr><td style="font-weight:bold;vertical-align:top;">auth</td><td style="vertical-align:top;">:</td><td><div><table><tr><td style="font-weight:bold;vertical-align:top;">expiration</td><td style="vertical-align:top;">:</td><td><div>2592000</div></td></tr><tr><td style="font-weight:bold;vertical-align:top;">hmac_key</td><td style="vertical-align:top;">:</td><td><div>f327d399-cd2b-411a-adf8-85bdc6fe7198</div></td></tr><tr><td style="font-weight:bold;vertical-align:top;">last_visit</td><td style="vertical-align:top;">:</td><td><div>datetime.datetime(2016, 9, 13, 18, 31, 29, 876487)</div></td></tr><tr><td style="font-weight:bold;vertical-align:top;">remember_me</td><td style="vertical-align:top;">:</td><td><div>True</div></td></tr><tr><td style="font-weight:bold;vertical-align:top;">user</td><td style="vertical-align:top;">:</td><td><div><table><tr><td style="font-weight:bold;vertical-align:top;">email</td><td style="vertical-align:top;">:</td><td><div>nyeinchan@coca-cola.com.mm</div></td></tr><tr><td style="font-weight:bold;vertical-align:top;">first_name</td><td style="vertical-align:top;">:</td><td><div>Nyein</div></td></tr><tr><td style="font-weight:bold;vertical-align:top;">id</td><td style="vertical-align:top;">:</td><td><div>2L</div></td></tr><tr><td style="font-weight:bold;vertical-align:top;">last_name</td><td style="vertical-align:top;">:</td><td><div>Chan</div></td></tr><tr><td style="font-weight:bold;vertical-align:top;">registration_id</td><td style="vertical-align:top;">:</td><td><div></div></td></tr><tr><td style="font-weight:bold;vertical-align:top;">registration_key</td><td style="vertical-align:top;">:</td><td><div></div></td></tr><tr><td style="font-weight:bold;vertical-align:top;">reset_password_key</td><td style="vertical-align:top;">:</td><td><div></div></td></tr></table></div></td></tr><tr><td style="font-weight:bold;vertical-align:top;">user_groups</td><td style="vertical-align:top;">:</td><td><div><table><tr><td style="font-weight:bold;vertical-align:top;">1</td><td style="vertical-align:top;">:</td><td><div>Admin</div></td></tr></table></div></td></tr></table></div></td></tr><tr><td style="font-weight:bold;vertical-align:top;">flash</td><td style="vertical-align:top;">:</td><td><div>None</div></td></tr></table></div>'
tRp238
sS'etype'
p239
S"<type 'exceptions.TypeError'>"
p240
sS'date'
p241
S'Tue Sep 13 22:37:44 2016'
p242
sS'response'
p243
g57
(S'sh\x17\x00\x00<div><table><tr><td style="font-weight:bold;vertical-align:top;">body</td><td style="vertical-align:top;">:</td><td><div>&lt;cStringIO.StringO object at 0x7fe4a84b49d0&gt;</div></td></tr><tr><td style="font-weight:bold;vertical-align:top;">cookies</td><td style="vertical-align:top;">:</td><td><div><table><tr><td style="font-weight:bold;vertical-align:top;">session_id_monitor</td><td style="vertical-align:top;">:</td><td><div>127.0.0.1-269bc736-497e-4485-be14-e7c146b8403d<table><tr><td style="font-weight:bold;vertical-align:top;">comment</td><td style="vertical-align:top;">:</td><td><div></div></td></tr><tr><td style="font-weight:bold;vertical-align:top;">domain</td><td style="vertical-align:top;">:</td><td><div></div></td></tr><tr><td style="font-weight:bold;vertical-align:top;">expires</td><td style="vertical-align:top;">:</td><td><div></div></td></tr><tr><td style="font-weight:bold;vertical-align:top;">httponly</td><td style="vertical-align:top;">:</td><td><div></div></td></tr><tr><td style="font-weight:bold;vertical-align:top;">max-age</td><td style="vertical-align:top;">:</td><td><div></div></td></tr><tr><td style="font-weight:bold;vertical-align:top;">path</td><td style="vertical-align:top;">:</td><td><div>/</div></td></tr><tr><td style="font-weight:bold;vertical-align:top;">secure</td><td style="vertical-align:top;">:</td><td><div></div></td></tr><tr><td style="font-weight:bold;vertical-align:top;">version</td><td style="vertical-align:top;">:</td><td><div></div></td></tr></table></div></td></tr></table></div></td></tr><tr><td style="font-weight:bold;vertical-align:top;">delimiters</td><td style="vertical-align:top;">:</td><td><div><table><tr><td><div>{{</div></td></tr><tr><td><div>}}</div></td></tr></table></div></td></tr><tr><td style="font-weight:bold;vertical-align:top;">files</td><td style="vertical-align:top;">:</td><td><div><table></table></div></td></tr><tr><td style="font-weight:bold;vertical-align:top;">flash</td><td style="vertical-align:top;">:</td><td><div></div></td></tr><tr><td style="font-weight:bold;vertical-align:top;">form_label_separator</td><td style="vertical-align:top;">:</td><td><div>: </div></td></tr><tr><td style="font-weight:bold;vertical-align:top;">formstyle</td><td style="vertical-align:top;">:</td><td><div>table3cols</div></td></tr><tr><td style="font-weight:bold;vertical-align:top;">generic_patterns</td><td style="vertical-align:top;">:</td><td><div><table><tr><td><div>*</div></td></tr></table></div></td></tr><tr><td style="font-weight:bold;vertical-align:top;">headers</td><td style="vertical-align:top;">:</td><td><div><table><tr><td style="font-weight:bold;vertical-align:top;">X-Powered-By</td><td style="vertical-align:top;">:</td><td><div>web2py</div></td></tr></table></div></td></tr><tr><td style="font-weight:bold;vertical-align:top;">menu</td><td style="vertical-align:top;">:</td><td><div><table></table></div></td></tr><tr><td style="font-weight:bold;vertical-align:top;">meta</td><td style="vertical-align:top;">:</td><td><div><table></table></div></td></tr><tr><td style="font-weight:bold;vertical-align:top;">models_to_run</td><td style="vertical-align:top;">:</td><td><div><table><tr><td><div>^\\w+\\.py$</div></td></tr><tr><td><div>^default/\\w+\\.py$</div></td></tr><tr><td><div>^default/brand/\\w+\\.py$</div></td></tr></table></div></td></tr><tr><td style="font-weight:bold;vertical-align:top;">postprocessing</td><td style="vertical-align:top;">:</td><td><div><table></table></div></td></tr><tr><td style="font-weight:bold;vertical-align:top;">session_client</td><td style="vertical-align:top;">:</td><td><div>127.0.0.1</div></td></tr><tr><td style="font-weight:bold;vertical-align:top;">session_cookie_compression_level</td><td style="vertical-align:top;">:</td><td><div>None</div></td></tr><tr><td style="font-weight:bold;vertical-align:top;">session_cookie_expires</td><td style="vertical-align:top;">:</td><td><div>2592000</div></td></tr><tr><td style="font-weight:bold;vertical-align:top;">session_data_name</td><td style="vertical-align:top;">:</td><td><div>session_data_monitor</div></td></tr><tr><td style="font-weight:bold;vertical-align:top;">session_file</td><td style="vertical-align:top;">:</td><td><div>&lt;open file &#x27;/home/nyeinchan/web2py/applications/monitor/sessions/177/0c4/127.0.0.1-269bc736-497e-4485-be14-e7c146b8403d&#x27;, mode &#x27;rb+&#x27; at 0x7fe4b1f07780&gt;</div></td></tr><tr><td style="font-weight:bold;vertical-align:top;">session_filename</td><td style="vertical-align:top;">:</td><td><div>/home/nyeinchan/web2py/applications/monitor/sessions/127.0.0.1-269bc736-497e-4485-be14-e7c146b8403d</div></td></tr><tr><td style="font-weight:bold;vertical-align:top;">session_hash</td><td style="vertical-align:top;">:</td><td><div>9afd599b77a4600c7ef50878f86d9d47</div></td></tr><tr><td style="font-weight:bold;vertical-align:top;">session_id</td><td style="vertical-align:top;">:</td><td><div>127.0.0.1-269bc736-497e-4485-be14-e7c146b8403d</div></td></tr><tr><td style="font-weight:bold;vertical-align:top;">session_id_name</td><td style="vertical-align:top;">:</td><td><div>session_id_monitor</div></td></tr><tr><td style="font-weight:bold;vertical-align:top;">session_locked</td><td style="vertical-align:top;">:</td><td><div>True</div></td></tr><tr><td style="font-weight:bold;vertical-align:top;">session_masterapp</td><td style="vertical-align:top;">:</td><td><div>monitor</div></td></tr><tr><td style="font-weight:bold;vertical-align:top;">session_new</td><td style="vertical-align:top;">:</td><td><div>False</div></td></tr><tr><td style="font-weight:bold;vertical-align:top;">session_storage_type</td><td style="vertical-align:top;">:</td><td><div>file</div></td></tr><tr><td style="font-weight:bold;vertical-align:top;">status</td><td style="vertical-align:top;">:</td><td><div>200</div></td></tr><tr><td style="font-weight:bold;vertical-align:top;">view</td><td style="vertical-align:top;">:</td><td><div>default/brand.html</div></td></tr></table></div>'
tRp244
sS'locals'
p245
(dp246
S'self'
p247
S'<function <lambda>>'
p248
sS'base'
p249
S"<type 'function'>"
p250
sS'proto'
p251
S'0'
sssS'traceback'
p252
S'Traceback (most recent call last):\n  File "/home/nyeinchan/web2py/gluon/restricted.py", line 227, in restricted\n    exec ccode in environment\n  File "/home/nyeinchan/web2py/applications/monitor/models/dbsetup.py", line 27, in <module>\n    readable=True, writable=False))\n  File "/home/nyeinchan/web2py/gluon/packages/dal/pydal/base.py", line 834, in define_table\n    table = self.lazy_define_table(tablename,*fields,**args)\n  File "/home/nyeinchan/web2py/gluon/packages/dal/pydal/base.py", line 873, in lazy_define_table\n    polymodel=polymodel)\n  File "/home/nyeinchan/web2py/gluon/packages/dal/pydal/adapters/base.py", line 510, in create_table\n    fake_migrate=fake_migrate\n  File "/home/nyeinchan/web2py/gluon/packages/dal/pydal/adapters/base.py", line 631, in migrate_table\n    self.save_dbt(table,sql_fields_current)\n  File "/home/nyeinchan/web2py/gluon/packages/dal/pydal/adapters/base.py", line 644, in save_dbt\n    pickle.dump(sql_fields_current, tfile)\n  File "/usr/lib/python2.7/copy_reg.py", line 70, in _reduce_ex\n    raise TypeError, "can\'t pickle %s objects" % base.__name__\nTypeError: can\'t pickle function objects\n'
p253
s.