(dp1
S'output'
p2
S"<type 'exceptions.AttributeError'> 'NoneType' object has no attribute '_adapter'"
p3
sS'layer'
p4
S'/home/nyeinchan/web2py/applications/monitor/controllers/default.py'
p5
sS'code'
p6
S'# -*- coding: utf-8 -*-\n# this file is released under public domain and you can use without limitations\n\n#########################################################################\n## This is a sample controller\n## - index is the default action of any application\n## - user is required for authentication and authorization\n## - download is for downloading files uploaded in the db (does streaming)\n#########################################################################\n\n@auth.requires_login()\ndef index():\n    """\n    example action using the internationalization operator T and flash\n    rendered by views/default/index.html or views/generic.html\n\n    if you need a simple wiki simply replace the two lines below with:\n    return auth.wiki()\n    """\n    response.flash = T("Welcome")\n    return dict(message=T(\'Welcome to web2py!\'))\n\n\ndef about():\n    return dict(message="This is about")\n\ndef brand():\n    grid = SQLFORM.smartgrid(\n        db.brand,\n        paginate=10,\n        csv=False\n    )\n    response.moduleTitle = \'Brand\'\n    return dict(form=grid)\n\ndef model():\n    grid = SQLFORM.smartgrid(\n        db.model,\n        Field(\n        \'brand\',\n        requires=IS_IN_DB(db, \'brand.id\', db.brand._format, multiple=False)),\n        paginate=10,\n        csv=False\n    )\n    response.moduleTitle = \'Model\'\n    return dict(form=grid)\n\n\ndef user():\n    """\n    exposes:\n    http://..../[app]/default/user/login\n    http://..../[app]/default/user/logout\n    http://..../[app]/default/user/register\n    http://..../[app]/default/user/profile\n    http://..../[app]/default/user/retrieve_password\n    http://..../[app]/default/user/change_password\n    http://..../[app]/default/user/bulk_register\n    use @auth.requires_login()\n        @auth.requires_membership(\'group name\')\n        @auth.requires_permission(\'read\',\'table name\',record_id)\n    to decorate functions that need access control\n    also notice there is http://..../[app]/appadmin/manage/auth to allow administrator to manage users\n    """\n    return dict(form=auth())\n\n\n\n\n@cache.action()\ndef download():\n    """\n    allows downloading of uploaded files\n    http://..../[app]/default/download/[filename]\n    """\n    return response.download(request, db)\n\n\ndef call():\n    """\n    exposes services. for example:\n    http://..../[app]/default/call/jsonrpc\n    decorate with @services.jsonrpc the functions to expose\n    supports xml, json, xmlrpc, jsonrpc, amfrpc, rss, csv\n    """\n    return service()\n\nresponse._vars=response._caller(model)\n'
p7
sS'snapshot'
p8
(dp9
sS'traceback'
p10
S'Traceback (most recent call last):\n  File "/home/nyeinchan/web2py/gluon/restricted.py", line 227, in restricted\n    exec ccode in environment\n  File "/home/nyeinchan/web2py/applications/monitor/controllers/default.py", line 88, in <module>\n  File "/home/nyeinchan/web2py/gluon/globals.py", line 417, in <lambda>\n    self._caller = lambda f: f()\n  File "/home/nyeinchan/web2py/applications/monitor/controllers/default.py", line 43, in model\n    csv=False\n  File "/home/nyeinchan/web2py/gluon/sqlhtml.py", line 3042, in smartgrid\n    if table._tablename in constraints:\n  File "/home/nyeinchan/web2py/gluon/packages/dal/pydal/objects.py", line 1123, in __getitem__\n    return self[i:i + 1]\n  File "/home/nyeinchan/web2py/gluon/packages/dal/pydal/objects.py", line 1120, in __getitem__\n    return Expression(db, db._adapter.SUBSTRING,\nAttributeError: \'NoneType\' object has no attribute \'_adapter\'\n'
p11
s.