(dp1
S'output'
p2
S"<type 'exceptions.KeyError'> 'Cannot resolve reference general_table AS OS_Type in device definition'"
p3
sS'layer'
p4
S'/home/nyeinchan/web2py/applications/monitor/models/dbsetup.py'
p5
sS'code'
p6
S'from datetime import datetime\nfrom gluon.contrib.appconfig import AppConfig\nmyconf = AppConfig(reload=True)\n\n\n## brand\ndb.define_table(\'brand\',\n\tField(\'name\', \'string\', requires=[IS_NOT_EMPTY()], label="Brand"),\n\tField(\'is_active\', \'boolean\', default=True, label="Active"),\n\tField(\'created_on\', \'datetime\', default=request.now,\n\t\t\treadable=True, writable=False),\n\tField(\'created_by\', \'reference auth_user\', default=auth.user_id,\n\t\t\treadable=True, writable=False),\n\tField(\'modified_on\', \'datetime\', update=request.now,\n\t\t\treadable=True, writable=False),\n\tField(\'modified_by\', \'reference auth_user\', update=auth.user_id,\n\t\t\treadable=True, writable=False),\n\tformat=\'%(name)s\'\n)\n## model\ndb.define_table(\'model\',\n\tField(\'name\', \'string\', requires=[IS_NOT_EMPTY()], label="Model"),\n\tField(\'brand\', \'reference brand\', requires=[ IS_IN_DB(db, db.brand.id, \'%(name)s\'), IS_NOT_EMPTY() ], label="Brand"),\n\tField(\'is_active\', \'boolean\', default=True, label="Active"),\n\tField(\'created_on\', \'datetime\', default=request.now,\n\t\t\treadable=True, writable=False),\n\tField(\'created_by\', \'reference auth_user\', default=auth.user_id,\n\t\t\treadable=True, writable=False),\n\tField(\'modified_on\', \'datetime\', update=request.now,\n\t\t\treadable=True, writable=False),\n\tField(\'modified_by\', \'reference auth_user\', update=auth.user_id,\n\t\t\treadable=True, writable=False))\n\n\n## config group\ndb.define_table(\'config_group\',\n\tField(\'name\', \'string\', requires=[IS_NOT_EMPTY()]),\n\tField(\'is_active\', \'boolean\', default=True),\n\tformat=\'%(name)s\'\n)\n\n## config\ndb.define_table(\'general_table\',\n\tField(\'code\', \'string\', requires=[IS_NOT_EMPTY()], label="Code"),\n\tField(\'name\', \'string\', requires=[IS_NOT_EMPTY()], label="Name"),\n\tField(\'config_type\', \'reference config_group\', requires=[IS_IN_DB(db, db.config_group.id, \'%(name)s\'), IS_NOT_EMPTY()], label="Type"),\n\tField(\'is_active\', \'boolean\', default=True, label="Active"),\n\tField(\'created_on\', \'datetime\', default=request.now,\n\t\t\treadable=True, writable=False),\n\tField(\'created_by\', \'reference auth_user\', default=auth.user_id,\n\t\t\treadable=True, writable=False),\n\tField(\'modified_on\', \'datetime\', update=request.now,\n\t\t\treadable=True, writable=False),\n\tField(\'modified_by\', \'reference auth_user\', update=auth.user_id,\n\t\t\treadable=True, writable=False),\n\tformat=\'%(name)s\'\n)\n\n\n## Room\ndb.define_table(\'room\',\n\tField(\'name\', \'string\', requires=[IS_NOT_EMPTY()], label="Room"),\n\tField(\'config\', \'reference general_table\', requires=[\n\tIS_IN_DB(db(db.general_table.config_type ==db(db.config_group.name==myconf.get(\'default_type.loc\')).select(db.config_group.id)),\n\tdb.general_table.id, \'%(name)s\'),\n\tIS_NOT_EMPTY() ], label="Location"),\n\tField(\'is_active\', \'boolean\', default=True, label="Active"),\n\tField(\'created_on\', \'datetime\', default=request.now,\n\t\t\treadable=True, writable=False),\n\tField(\'created_by\', \'reference auth_user\', default=auth.user_id,\n\t\t\treadable=True, writable=False),\n\tField(\'modified_on\', \'datetime\', update=request.now,\n\t\t\treadable=True, writable=False),\n\tField(\'modified_by\', \'reference auth_user\', update=auth.user_id,\n\t\t\treadable=True, writable=False),\n\tformat=\'%(name)s\'\n)\n\n## apps\ndb.define_table(\'apps\',\n\tField(\'name\', \'string\', requires=[IS_NOT_EMPTY()], label="Name"),\n\tField(\'app_type\', \'reference general_table\', requires=[\n\tIS_IN_DB(db(db.general_table.config_type == db(db.config_group.name==myconf.get(\'default_type.app\')).select(db.config_group.id)),\n\tdb.general_table.id, \'%(name)s\'),\n\tIS_NOT_EMPTY()], label="Type"),\n\tField(\'is_active\', \'boolean\', default=True, label="Active"),\n\tField(\'created_on\', \'datetime\', default=request.now,\n\t\t\treadable=True, writable=False),\n\tField(\'created_by\', \'reference auth_user\', default=auth.user_id,\n\t\t\treadable=True, writable=False),\n\tField(\'modified_on\', \'datetime\', update=request.now,\n\t\t\treadable=True, writable=False),\n\tField(\'modified_by\', \'reference auth_user\', update=auth.user_id,\n\t\t\treadable=True, writable=False),\n\tformat=\'%(name)s\'\n)\n\n## employee\ndb.define_table(\'employee\',\n\tField(\'code\', \'string\', requires=[IS_NOT_EMPTY()], label="Code"),\n\tField(\'name\', \'string\', requires=[IS_NOT_EMPTY()], label="Name"),\n\tField(\'job_title\', \'string\', label="Job Title"),\n\tField(\'department\', \'reference general_table\', requires=[\n\tIS_IN_DB(db(db.general_table.config_type == db(db.config_group.name==myconf.get(\'default_type.dpt\')).select(db.config_group.id)),\n\tdb.general_table.id, \'%(name)s\'),\n\tIS_NOT_EMPTY()], label="Department"),\n\tField(\'is_active\', \'boolean\', default=True, label="Active"),\n\tField(\'created_on\', \'datetime\', default=request.now,\n\t\t\treadable=True, writable=False),\n\tField(\'created_by\', \'reference auth_user\', default=auth.user_id,\n\t\t\treadable=True, writable=False),\n\tField(\'modified_on\', \'datetime\', update=request.now,\n\t\t\treadable=True, writable=False),\n\tField(\'modified_by\', \'reference auth_user\', update=auth.user_id,\n\t\t\treadable=True, writable=False),\n\tformat=\'%(name)s\')\n\n##sim\ndb.define_table(\'sim\',\n\tField(\'sim_number\', \'string\', requires=[IS_NOT_EMPTY()],label="Phone Number"),\n\tField(\'brand_type\', \'reference general_table\', requires=[\n\tIS_IN_DB(db(db.general_table.config_type == db(db.config_group.name==myconf.get(\'default_type.opt\')).select(db.config_group.id)),\n\tdb.general_table.id, \'%(name)s\'),\n\tIS_NOT_EMPTY()], label="Operator"),\n\tField(\'plan_type\', \'reference general_table\', requires=[\n\tIS_IN_DB(db(db.general_table.config_type == db(db.config_group.name==myconf.get(\'default_type.pln\')).select(db.config_group.id)),\n\tdb.general_table.id, \'%(name)s\'),\n\tIS_NOT_EMPTY()], label="Plan"),\n\tField(\'is_active\', \'boolean\', default=True, label="Active"),\n\tField(\'created_on\', \'datetime\', default=request.now,\n\t\t\treadable=True, writable=False),\n\tField(\'created_by\', \'reference auth_user\', default=auth.user_id,\n\t\t\treadable=True, writable=False),\n\tField(\'modified_on\', \'datetime\', update=request.now,\n\t\t\treadable=True, writable=False),\n\tField(\'modified_by\', \'reference auth_user\', update=auth.user_id,\n\t\t\treadable=True, writable=False),\n\tformat=\'%(name)s\'\n)\n\n## email\ndb.define_table(\'email_account\',\n\tField(\'username\', \'string\', requires=[IS_NOT_EMPTY()], label="Email Address"),\n\tField(\'default_password\', \'string\', label="Default Password"),\n\tField(\'user_type\', \'reference general_table\', requires=[\n\tIS_IN_DB(db(db.general_table.config_type == db(db.config_group.name==myconf.get(\'default_type.user\')).select(db.config_group.id)),\n\tdb.general_table.id, \'%(name)s\'),\n\tIS_NOT_EMPTY()], label="User Type"),\n\tField(\'license_type\', \'reference general_table\', requires=[\n\tIS_IN_DB(db(db.general_table.config_type == db(db.config_group.name==myconf.get(\'default_type.lns\')).select(db.config_group.id)),\n\tdb.general_table.id, \'%(name)s\'),\n\tIS_NOT_EMPTY()], label="License Type"),\n\tField(\'is_active\', \'boolean\', default=True, label="Active"),\n\tField(\'created_on\', \'datetime\', default=request.now,\n\t\t\treadable=True, writable=False),\n\tField(\'created_by\', \'reference auth_user\', default=auth.user_id,\n\t\t\treadable=True, writable=False),\n\tField(\'modified_on\', \'datetime\', update=request.now,\n\t\t\treadable=True, writable=False),\n\tField(\'modified_by\', \'reference auth_user\', update=auth.user_id,\n\t\t\treadable=True, writable=False),\n\tformat=\'%(name)s\')\n\n## email\ndb.define_table(\'device\',\n\tField(\'name\', \'string\', requires=[IS_NOT_EMPTY()], label="Name"),\n\tField(\'device_type\', \'reference general_table\', requires=[\n\tIS_IN_DB(db(db.general_table.config_type == db(db.config_group.name==myconf.get(\'default_type.dvc\')).select(db.config_group.id)),\n\tdb.general_table.id, \'%(name)s\'),\n\tIS_NOT_EMPTY()], label="Type"),\n\tField(\'model_id\', \'reference model\', requires=[ IS_IN_DB(db, db.model.id, \'%(name)s\'), IS_NOT_EMPTY() ], label="Model"),\n\tField(\'os_type\', db.general_table.with_alias(\'OS_Type\'), requires=[\n\tIS_IN_DB(db(db.general_table.config_type == db(db.config_group.name==myconf.get(\'default_type.oss\')).select(db.config_group.id)),\n\tdb.general_table.id, \'%(name)s\'),\n\tIS_NOT_EMPTY()], label="Operation System"),\n\tField(\'cpu\', \'string\', requires=[IS_NOT_EMPTY()], label="CPU"),\n\tField(\'ram\', \'string\', requires=[IS_NOT_EMPTY()], label="RAM"),\n\tField(\'hard_disk\', \'string\', requires=[IS_NOT_EMPTY()], label="HDD"),\n\tField(\'drive\', \'string\', label="CD/DVD"),\n\tField(\'screen_size\', \'string\', label="Display"),\n\tField(\'is_active\', \'boolean\', default=True, label="Active"),\n\tField(\'created_on\', \'datetime\', default=request.now,\n\t\t\treadable=True, writable=False),\n\tField(\'created_by\', \'reference auth_user\', default=auth.user_id,\n\t\t\treadable=True, writable=False),\n\tField(\'modified_on\', \'datetime\', update=request.now,\n\t\t\treadable=True, writable=False),\n\tField(\'modified_by\', \'reference auth_user\', update=auth.user_id,\n\t\t\treadable=True, writable=False),\n\tformat=\'%(name)s\')\n\n## default user root\nif db(db.auth_user).count() <1:\n\tdb.auth_group.bulk_insert([\n\t\tdict(role=\'Admin\', description=\'System user\'),\n\t\tdict(role=\'Manager\', description=\'Manager\'),\n\t\tdict(role=\'User\', description=\'User\')\n\t])\n\n\tdb.auth_user.bulk_insert([\n\t\tdict(\n\t\t\tfirst_name=\'System\',\n\t\t\tlast_name=\'Admin\',\n\t\t\temail=\'root@coca-cola.com.mm\',\n\t\t\tpassword=db.auth_user.password.validate(\'C0ke@12345\')[0]\n\t\t),\n\t\tdict(\n\t\t\tfirst_name=\'Nyein\',\n\t\t\tlast_name=\'Chan\',\n\t\t\temail=\'nyeinchan@coca-cola.com.mm\',\n\t\t\tpassword=db.auth_user.password.validate(\'Basn4@C01\')[0]\n\t\t)\n\t])\n\n\tauth.add_membership(user_id=1, group_id=1)\n\tauth.add_membership(user_id=2, group_id=1)\n\nif db(db.config_group).count() < 1:\n\tdb.config_group.bulk_insert([\n\t\tdict(name=myconf.get(\'default_type.acs\')),\n\t\tdict(name=myconf.get(\'default_type.app\')),\n\t\tdict(name=myconf.get(\'default_type.dpt\')),\n\t\tdict(name=myconf.get(\'default_type.dvc\')),\n\t\tdict(name=myconf.get(\'default_type.eml\')),\n\t\tdict(name=myconf.get(\'default_type.loc\')),\n\t\tdict(name=myconf.get(\'default_type.lnc\')),\n\t\tdict(name=myconf.get(\'default_type.opt\')),\n\t\tdict(name=myconf.get(\'default_type.pln\')),\n\t\tdict(name=myconf.get(\'default_type.usr\'))\n\t])\n'
p7
sS'snapshot'
p8
(dp9
S'exception'
p10
(dp11
S'__hash__'
p12
S"<method-wrapper '__hash__' of exceptions.KeyError object>"
p13
sS'__setattr__'
p14
S"<method-wrapper '__setattr__' of exceptions.KeyError object>"
p15
sS'__reduce_ex__'
p16
S'<built-in method __reduce_ex__ of exceptions.KeyError object>'
p17
sS'__getslice__'
p18
S"<method-wrapper '__getslice__' of exceptions.KeyError object>"
p19
sS'__getitem__'
p20
S"<method-wrapper '__getitem__' of exceptions.KeyError object>"
p21
sS'__setstate__'
p22
S'<built-in method __setstate__ of exceptions.KeyError object>'
p23
sS'args'
p24
S"('Cannot resolve reference general_table AS OS_Type in device definition',)"
p25
sS'__reduce__'
p26
S'<built-in method __reduce__ of exceptions.KeyError object>'
p27
sS'__str__'
p28
S"<method-wrapper '__str__' of exceptions.KeyError object>"
p29
sS'__format__'
p30
S'<built-in method __format__ of exceptions.KeyError object>'
p31
sS'__getattribute__'
p32
S"<method-wrapper '__getattribute__' of exceptions.KeyError object>"
p33
sS'__class__'
p34
S"<type 'exceptions.KeyError'>"
p35
sS'__unicode__'
p36
S'<built-in method __unicode__ of exceptions.KeyError object>'
p37
sS'__delattr__'
p38
S"<method-wrapper '__delattr__' of exceptions.KeyError object>"
p39
sS'__subclasshook__'
p40
S'<built-in method __subclasshook__ of type object>'
p41
sS'__repr__'
p42
S"<method-wrapper '__repr__' of exceptions.KeyError object>"
p43
sS'__dict__'
p44
S'{}'
p45
sS'__sizeof__'
p46
S'<built-in method __sizeof__ of exceptions.KeyError object>'
p47
sS'__doc__'
p48
S"'Mapping key not found.'"
p49
sS'__init__'
p50
S"<method-wrapper '__init__' of exceptions.KeyError object>"
p51
sS'__new__'
p52
S'<built-in method __new__ of type object>'
p53
ssS'evalue'
p54
S"'Cannot resolve reference general_table AS OS_Type in device definition'"
p55
sS'request'
p56
cgluon.html
XML_unpickle
p57
(S's\xa8`\x00\x00<div><table><tr><td style="font-weight:bold;vertical-align:top;">ajax</td><td style="vertical-align:top;">:</td><td><div>False</div></td></tr><tr><td style="font-weight:bold;vertical-align:top;">application</td><td style="vertical-align:top;">:</td><td><div>monitor</div></td></tr><tr><td style="font-weight:bold;vertical-align:top;">args</td><td style="vertical-align:top;">:</td><td><div><table></table></div></td></tr><tr><td style="font-weight:bold;vertical-align:top;">cid</td><td style="vertical-align:top;">:</td><td><div>None</div></td></tr><tr><td style="font-weight:bold;vertical-align:top;">client</td><td style="vertical-align:top;">:</td><td><div>127.0.0.1</div></td></tr><tr><td style="font-weight:bold;vertical-align:top;">controller</td><td style="vertical-align:top;">:</td><td><div>default</div></td></tr><tr><td style="font-weight:bold;vertical-align:top;">cookies</td><td style="vertical-align:top;">:</td><td><div><table><tr><td style="font-weight:bold;vertical-align:top;">session_id_admin</td><td style="vertical-align:top;">:</td><td><div>127.0.0.1-edee4b42-92de-4d2d-be7d-e3f4698fc431<table><tr><td style="font-weight:bold;vertical-align:top;">comment</td><td style="vertical-align:top;">:</td><td><div></div></td></tr><tr><td style="font-weight:bold;vertical-align:top;">domain</td><td style="vertical-align:top;">:</td><td><div></div></td></tr><tr><td style="font-weight:bold;vertical-align:top;">expires</td><td style="vertical-align:top;">:</td><td><div></div></td></tr><tr><td style="font-weight:bold;vertical-align:top;">httponly</td><td style="vertical-align:top;">:</td><td><div></div></td></tr><tr><td style="font-weight:bold;vertical-align:top;">max-age</td><td style="vertical-align:top;">:</td><td><div></div></td></tr><tr><td style="font-weight:bold;vertical-align:top;">path</td><td style="vertical-align:top;">:</td><td><div></div></td></tr><tr><td style="font-weight:bold;vertical-align:top;">secure</td><td style="vertical-align:top;">:</td><td><div></div></td></tr><tr><td style="font-weight:bold;vertical-align:top;">version</td><td style="vertical-align:top;">:</td><td><div></div></td></tr></table></div></td></tr><tr><td style="font-weight:bold;vertical-align:top;">session_id_invoice2py</td><td style="vertical-align:top;">:</td><td><div>127.0.0.1-1cd4a1fe-c276-4b0d-a50d-29c921e5f4a0<table><tr><td style="font-weight:bold;vertical-align:top;">comment</td><td style="vertical-align:top;">:</td><td><div></div></td></tr><tr><td style="font-weight:bold;vertical-align:top;">domain</td><td style="vertical-align:top;">:</td><td><div></div></td></tr><tr><td style="font-weight:bold;vertical-align:top;">expires</td><td style="vertical-align:top;">:</td><td><div></div></td></tr><tr><td style="font-weight:bold;vertical-align:top;">httponly</td><td style="vertical-align:top;">:</td><td><div></div></td></tr><tr><td style="font-weight:bold;vertical-align:top;">max-age</td><td style="vertical-align:top;">:</td><td><div></div></td></tr><tr><td style="font-weight:bold;vertical-align:top;">path</td><td style="vertical-align:top;">:</td><td><div></div></td></tr><tr><td style="font-weight:bold;vertical-align:top;">secure</td><td style="vertical-align:top;">:</td><td><div></div></td></tr><tr><td style="font-weight:bold;vertical-align:top;">version</td><td style="vertical-align:top;">:</td><td><div></div></td></tr></table></div></td></tr><tr><td style="font-weight:bold;vertical-align:top;">session_id_monitor</td><td style="vertical-align:top;">:</td><td><div>127.0.0.1-8ec03c36-625d-40ce-9804-437b7b3ae298<table><tr><td style="font-weight:bold;vertical-align:top;">comment</td><td style="vertical-align:top;">:</td><td><div></div></td></tr><tr><td style="font-weight:bold;vertical-align:top;">domain</td><td style="vertical-align:top;">:</td><td><div></div></td></tr><tr><td style="font-weight:bold;vertical-align:top;">expires</td><td style="vertical-align:top;">:</td><td><div></div></td></tr><tr><td style="font-weight:bold;vertical-align:top;">httponly</td><td style="vertical-align:top;">:</td><td><div></div></td></tr><tr><td style="font-weight:bold;vertical-align:top;">max-age</td><td style="vertical-align:top;">:</td><td><div></div></td></tr><tr><td style="font-weight:bold;vertical-align:top;">path</td><td style="vertical-align:top;">:</td><td><div></div></td></tr><tr><td style="font-weight:bold;vertical-align:top;">secure</td><td style="vertical-align:top;">:</td><td><div></div></td></tr><tr><td style="font-weight:bold;vertical-align:top;">version</td><td style="vertical-align:top;">:</td><td><div></div></td></tr></table></div></td></tr><tr><td style="font-weight:bold;vertical-align:top;">session_id_welcome</td><td style="vertical-align:top;">:</td><td><div>127.0.0.1-544438f6-1dec-40dd-82db-97a8cb601f99<table><tr><td style="font-weight:bold;vertical-align:top;">comment</td><td style="vertical-align:top;">:</td><td><div></div></td></tr><tr><td style="font-weight:bold;vertical-align:top;">domain</td><td style="vertical-align:top;">:</td><td><div></div></td></tr><tr><td style="font-weight:bold;vertical-align:top;">expires</td><td style="vertical-align:top;">:</td><td><div></div></td></tr><tr><td style="font-weight:bold;vertical-align:top;">httponly</td><td style="vertical-align:top;">:</td><td><div></div></td></tr><tr><td style="font-weight:bold;vertical-align:top;">max-age</td><td style="vertical-align:top;">:</td><td><div></div></td></tr><tr><td style="font-weight:bold;vertical-align:top;">path</td><td style="vertical-align:top;">:</td><td><div></div></td></tr><tr><td style="font-weight:bold;vertical-align:top;">secure</td><td style="vertical-align:top;">:</td><td><div></div></td></tr><tr><td style="font-weight:bold;vertical-align:top;">version</td><td style="vertical-align:top;">:</td><td><div></div></td></tr></table></div></td></tr></table></div></td></tr><tr><td style="font-weight:bold;vertical-align:top;">env</td><td style="vertical-align:top;">:</td><td><div><table><tr><td style="font-weight:bold;vertical-align:top;">HTTP_ACCEPT</td><td style="vertical-align:top;">:</td><td><div>text/html,application/xhtml+xml,application/xml;q=0.9,image/webp,*/*;q=0.8</div></td></tr><tr><td style="font-weight:bold;vertical-align:top;">HTTP_ACCEPT_ENCODING</td><td style="vertical-align:top;">:</td><td><div>gzip, deflate, sdch</div></td></tr><tr><td style="font-weight:bold;vertical-align:top;">HTTP_ACCEPT_LANGUAGE</td><td style="vertical-align:top;">:</td><td><div>en-US,en;q=0.8</div></td></tr><tr><td style="font-weight:bold;vertical-align:top;">HTTP_CACHE_CONTROL</td><td style="vertical-align:top;">:</td><td><div>max-age=0</div></td></tr><tr><td style="font-weight:bold;vertical-align:top;">HTTP_CONNECTION</td><td style="vertical-align:top;">:</td><td><div>keep-alive</div></td></tr><tr><td style="font-weight:bold;vertical-align:top;">HTTP_COOKIE</td><td style="vertical-align:top;">:</td><td><div>session_id_invoice2py=127.0.0.1-1cd4a1fe-c276-4b0d-a50d-29c921e5f4a0; session_id_welcome=127.0.0.1-544438f6-1dec-40dd-82db-97a8cb601f99; session_id_monitor=127.0.0.1-8ec03c36-625d-40ce-9804-437b7b3ae298; session_id_admin=127.0.0.1-edee4b42-92de-4d2d-be7d-e3f4698fc431</div></td></tr><tr><td style="font-weight:bold;vertical-align:top;">HTTP_HOST</td><td style="vertical-align:top;">:</td><td><div>localhost:8000</div></td></tr><tr><td style="font-weight:bold;vertical-align:top;">HTTP_UPGRADE_INSECURE_REQUESTS</td><td style="vertical-align:top;">:</td><td><div>1</div></td></tr><tr><td style="font-weight:bold;vertical-align:top;">HTTP_USER_AGENT</td><td style="vertical-align:top;">:</td><td><div>Mozilla/5.0 (X11; Linux x86_64) AppleWebKit/537.36 (KHTML, like Gecko) Chrome/53.0.2785.116 Safari/537.36</div></td></tr><tr><td style="font-weight:bold;vertical-align:top;">PATH_INFO</td><td style="vertical-align:top;">:</td><td><div>/monitor</div></td></tr><tr><td style="font-weight:bold;vertical-align:top;">QUERY_STRING</td><td style="vertical-align:top;">:</td><td><div></div></td></tr><tr><td style="font-weight:bold;vertical-align:top;">REMOTE_ADDR</td><td style="vertical-align:top;">:</td><td><div>127.0.0.1</div></td></tr><tr><td style="font-weight:bold;vertical-align:top;">REMOTE_PORT</td><td style="vertical-align:top;">:</td><td><div>49064</div></td></tr><tr><td style="font-weight:bold;vertical-align:top;">REQUEST_METHOD</td><td style="vertical-align:top;">:</td><td><div>GET</div></td></tr><tr><td style="font-weight:bold;vertical-align:top;">SCRIPT_NAME</td><td style="vertical-align:top;">:</td><td><div></div></td></tr><tr><td style="font-weight:bold;vertical-align:top;">SERVER_NAME</td><td style="vertical-align:top;">:</td><td><div>HTY-L-PC09DD2CU</div></td></tr><tr><td style="font-weight:bold;vertical-align:top;">SERVER_PORT</td><td style="vertical-align:top;">:</td><td><div>8000</div></td></tr><tr><td style="font-weight:bold;vertical-align:top;">SERVER_PROTOCOL</td><td style="vertical-align:top;">:</td><td><div>HTTP/1.1</div></td></tr><tr><td style="font-weight:bold;vertical-align:top;">SERVER_SOFTWARE</td><td style="vertical-align:top;">:</td><td><div>Rocket 1.2.6</div></td></tr><tr><td style="font-weight:bold;vertical-align:top;">app_folders</td><td style="vertical-align:top;">:</td><td><div>set([&#x27;/home/nyeinchan/web2py/applications/admin/&#x27;, &#x27;/home/nyeinchan/web2py/applications/monitor/&#x27;, &#x27;/home/nyeinchan/web2py/applications/welcome/&#x27;, &#x27;/home/nyeinchan/web2py/applications/invoice2py/&#x27;])</div></td></tr><tr><td style="font-weight:bold;vertical-align:top;">applications_parent</td><td style="vertical-align:top;">:</td><td><div>/home/nyeinchan/web2py</div></td></tr><tr><td style="font-weight:bold;vertical-align:top;">cmd_args</td><td style="vertical-align:top;">:</td><td><div><table></table></div></td></tr><tr><td style="font-weight:bold;vertical-align:top;">cmd_options</td><td style="vertical-align:top;">:</td><td><div>&lt;Values at 0x7fa6ec950680: {&#x27;verbose&#x27;: False, &#x27;ip&#x27;: &#x27;127.0.0.1&#x27;, &#x27;debuglevel&#x27;: 30, &#x27;with_scheduler&#x27;: False, &#x27;shutdown_timeout&#x27;: 5, &#x27;taskbar&#x27;: False, &#x27;with_coverage&#x27;: False, &#x27;pid_filename&#x27;: &#x27;httpserver.pid&#x27;, &#x27;maxthreads&#x27;: None, &#x27;softcron&#x27;: False, &#x27;server_name&#x27;: &#x27;HTY-L-PC09DD2CU&#x27;, &#x27;bpython&#x27;: False, &#x27;nogui&#x27;: False, &#x27;port&#x27;: 8000, &#x27;print_errors&#x27;: False, &#x27;extcron&#x27;: False, &#x27;runcron&#x27;: False, &#x27;run_system_tests&#x27;: False, &#x27;test&#x27;: None, &#x27;folder&#x27;: &#x27;/home/nyeinchan/web2py&#x27;, &#x27;config&#x27;: &#x27;&#x27;, &#x27;minthreads&#x27;: None, &#x27;shell&#x27;: None, &#x27;run&#x27;: &#x27;&#x27;, &#x27;log_filename&#x27;: &#x27;httpserver.log&#x27;, &#x27;profiler_dir&#x27;: None, &#x27;args&#x27;: [&#x27;&#x27;], &#x27;socket_timeout&#x27;: 5, &#x27;ssl_ca_certificate&#x27;: None, &#x27;scheduler&#x27;: None, &#x27;interfaces&#x27;: None, &#x27;ssl_private_key&#x27;: &#x27;&#x27;, &#x27;gae&#x27;: None, &#x27;password&#x27;: &#x27;******&#x27;, &#x27;request_queue_size&#x27;: 5, &#x27;ssl_certificate&#x27;: &#x27;&#x27;, &#x27;cronjob&#x27;: False, &#x27;numthreads&#x27;: None, &#x27;quiet&#x27;: False, &#x27;import_models&#x27;: False, &#x27;timeout&#x27;: 10, &#x27;plain&#x27;: False, &#x27;nobanner&#x27;: False}&gt;</div></td></tr><tr><td style="font-weight:bold;vertical-align:top;">db_sessions</td><td style="vertical-align:top;">:</td><td><div>set([])</div></td></tr><tr><td style="font-weight:bold;vertical-align:top;">debugging</td><td style="vertical-align:top;">:</td><td><div>False</div></td></tr><tr><td style="font-weight:bold;vertical-align:top;">gluon_parent</td><td style="vertical-align:top;">:</td><td><div>/home/nyeinchan/web2py</div></td></tr><tr><td style="font-weight:bold;vertical-align:top;">http_accept</td><td style="vertical-align:top;">:</td><td><div>text/html,application/xhtml+xml,application/xml;q=0.9,image/webp,*/*;q=0.8</div></td></tr><tr><td style="font-weight:bold;vertical-align:top;">http_accept_encoding</td><td style="vertical-align:top;">:</td><td><div>gzip, deflate, sdch</div></td></tr><tr><td style="font-weight:bold;vertical-align:top;">http_accept_language</td><td style="vertical-align:top;">:</td><td><div>en-US,en;q=0.8</div></td></tr><tr><td style="font-weight:bold;vertical-align:top;">http_cache_control</td><td style="vertical-align:top;">:</td><td><div>max-age=0</div></td></tr><tr><td style="font-weight:bold;vertical-align:top;">http_connection</td><td style="vertical-align:top;">:</td><td><div>keep-alive</div></td></tr><tr><td style="font-weight:bold;vertical-align:top;">http_cookie</td><td style="vertical-align:top;">:</td><td><div>session_id_invoice2py=127.0.0.1-1cd4a1fe-c276-4b0d-a50d-29c921e5f4a0; session_id_welcome=127.0.0.1-544438f6-1dec-40dd-82db-97a8cb601f99; session_id_monitor=127.0.0.1-8ec03c36-625d-40ce-9804-437b7b3ae298; session_id_admin=127.0.0.1-edee4b42-92de-4d2d-be7d-e3f4698fc431</div></td></tr><tr><td style="font-weight:bold;vertical-align:top;">http_host</td><td style="vertical-align:top;">:</td><td><div>localhost:8000</div></td></tr><tr><td style="font-weight:bold;vertical-align:top;">http_upgrade_insecure_requests</td><td style="vertical-align:top;">:</td><td><div>1</div></td></tr><tr><td style="font-weight:bold;vertical-align:top;">http_user_agent</td><td style="vertical-align:top;">:</td><td><div>Mozilla/5.0 (X11; Linux x86_64) AppleWebKit/537.36 (KHTML, like Gecko) Chrome/53.0.2785.116 Safari/537.36</div></td></tr><tr><td style="font-weight:bold;vertical-align:top;">is_jython</td><td style="vertical-align:top;">:</td><td><div>False</div></td></tr><tr><td style="font-weight:bold;vertical-align:top;">is_pypy</td><td style="vertical-align:top;">:</td><td><div>False</div></td></tr><tr><td style="font-weight:bold;vertical-align:top;">is_source</td><td style="vertical-align:top;">:</td><td><div>True</div></td></tr><tr><td style="font-weight:bold;vertical-align:top;">local_hosts</td><td style="vertical-align:top;">:</td><td><div><table><tr><td><div>HTY-L-PC09DD2CU</div></td></tr><tr><td><div>::1</div></td></tr><tr><td><div>127.0.1.1</div></td></tr><tr><td><div>::ffff:127.0.0.1</div></td></tr><tr><td><div>127.0.0.1</div></td></tr></table></div></td></tr><tr><td style="font-weight:bold;vertical-align:top;">path_info</td><td style="vertical-align:top;">:</td><td><div>/monitor</div></td></tr><tr><td style="font-weight:bold;vertical-align:top;">query_string</td><td style="vertical-align:top;">:</td><td><div></div></td></tr><tr><td style="font-weight:bold;vertical-align:top;">remote_addr</td><td style="vertical-align:top;">:</td><td><div>127.0.0.1</div></td></tr><tr><td style="font-weight:bold;vertical-align:top;">remote_port</td><td style="vertical-align:top;">:</td><td><div>49064</div></td></tr><tr><td style="font-weight:bold;vertical-align:top;">request_method</td><td style="vertical-align:top;">:</td><td><div>GET</div></td></tr><tr><td style="font-weight:bold;vertical-align:top;">request_uri</td><td style="vertical-align:top;">:</td><td><div>/monitor</div></td></tr><tr><td style="font-weight:bold;vertical-align:top;">script_name</td><td style="vertical-align:top;">:</td><td><div></div></td></tr><tr><td style="font-weight:bold;vertical-align:top;">server_name</td><td style="vertical-align:top;">:</td><td><div>HTY-L-PC09DD2CU</div></td></tr><tr><td style="font-weight:bold;vertical-align:top;">server_port</td><td style="vertical-align:top;">:</td><td><div>8000</div></td></tr><tr><td style="font-weight:bold;vertical-align:top;">server_protocol</td><td style="vertical-align:top;">:</td><td><div>HTTP/1.1</div></td></tr><tr><td style="font-weight:bold;vertical-align:top;">server_software</td><td style="vertical-align:top;">:</td><td><div>Rocket 1.2.6</div></td></tr><tr><td style="font-weight:bold;vertical-align:top;">web2py_path</td><td style="vertical-align:top;">:</td><td><div>/home/nyeinchan/web2py</div></td></tr><tr><td style="font-weight:bold;vertical-align:top;">web2py_version</td><td style="vertical-align:top;">:</td><td><div>2.14.6-stable+timestamp.2016.05.10.00.21.47</div></td></tr><tr><td style="font-weight:bold;vertical-align:top;">wsgi.errors</td><td style="vertical-align:top;">:</td><td><div>&lt;open file &#x27;&lt;stderr&gt;&#x27;, mode &#x27;w&#x27; at 0x7fa6f23ec1e0&gt;</div></td></tr><tr><td style="font-weight:bold;vertical-align:top;">wsgi.file_wrapper</td><td style="vertical-align:top;">:</td><td><div>&lt;class wsgiref.util.FileWrapper at 0x7fa6ec7d06d0&gt;</div></td></tr><tr><td style="font-weight:bold;vertical-align:top;">wsgi.input</td><td style="vertical-align:top;">:</td><td><div>&lt;socket._fileobject object at 0x7fa6c9aa7d50&gt;</div></td></tr><tr><td style="font-weight:bold;vertical-align:top;">wsgi.multiprocess</td><td style="vertical-align:top;">:</td><td><div>False</div></td></tr><tr><td style="font-weight:bold;vertical-align:top;">wsgi.multithread</td><td style="vertical-align:top;">:</td><td><div>True</div></td></tr><tr><td style="font-weight:bold;vertical-align:top;">wsgi.run_once</td><td style="vertical-align:top;">:</td><td><div>False</div></td></tr><tr><td style="font-weight:bold;vertical-align:top;">wsgi.url_scheme</td><td style="vertical-align:top;">:</td><td><div>http</div></td></tr><tr><td style="font-weight:bold;vertical-align:top;">wsgi.version</td><td style="vertical-align:top;">:</td><td><div><table><tr><td><div>1</div></td></tr><tr><td><div>0</div></td></tr></table></div></td></tr><tr><td style="font-weight:bold;vertical-align:top;">wsgi_errors</td><td style="vertical-align:top;">:</td><td><div>&lt;open file &#x27;&lt;stderr&gt;&#x27;, mode &#x27;w&#x27; at 0x7fa6f23ec1e0&gt;</div></td></tr><tr><td style="font-weight:bold;vertical-align:top;">wsgi_file_wrapper</td><td style="vertical-align:top;">:</td><td><div>&lt;class wsgiref.util.FileWrapper at 0x7fa6ec7d06d0&gt;</div></td></tr><tr><td style="font-weight:bold;vertical-align:top;">wsgi_input</td><td style="vertical-align:top;">:</td><td><div>&lt;socket._fileobject object at 0x7fa6c9aa7d50&gt;</div></td></tr><tr><td style="font-weight:bold;vertical-align:top;">wsgi_multiprocess</td><td style="vertical-align:top;">:</td><td><div>False</div></td></tr><tr><td style="font-weight:bold;vertical-align:top;">wsgi_multithread</td><td style="vertical-align:top;">:</td><td><div>True</div></td></tr><tr><td style="font-weight:bold;vertical-align:top;">wsgi_run_once</td><td style="vertical-align:top;">:</td><td><div>False</div></td></tr><tr><td style="font-weight:bold;vertical-align:top;">wsgi_url_scheme</td><td style="vertical-align:top;">:</td><td><div>http</div></td></tr><tr><td style="font-weight:bold;vertical-align:top;">wsgi_version</td><td style="vertical-align:top;">:</td><td><div><table><tr><td><div>1</div></td></tr><tr><td><div>0</div></td></tr></table></div></td></tr></table></div></td></tr><tr><td style="font-weight:bold;vertical-align:top;">extension</td><td style="vertical-align:top;">:</td><td><div>html</div></td></tr><tr><td style="font-weight:bold;vertical-align:top;">folder</td><td style="vertical-align:top;">:</td><td><div>/home/nyeinchan/web2py/applications/monitor/</div></td></tr><tr><td style="font-weight:bold;vertical-align:top;">function</td><td style="vertical-align:top;">:</td><td><div>index</div></td></tr><tr><td style="font-weight:bold;vertical-align:top;">global_settings</td><td style="vertical-align:top;">:</td><td><div><table><tr><td style="font-weight:bold;vertical-align:top;">app_folders</td><td style="vertical-align:top;">:</td><td><div>set([&#x27;/home/nyeinchan/web2py/applications/admin/&#x27;, &#x27;/home/nyeinchan/web2py/applications/monitor/&#x27;, &#x27;/home/nyeinchan/web2py/applications/welcome/&#x27;, &#x27;/home/nyeinchan/web2py/applications/invoice2py/&#x27;])</div></td></tr><tr><td style="font-weight:bold;vertical-align:top;">applications_parent</td><td style="vertical-align:top;">:</td><td><div>/home/nyeinchan/web2py</div></td></tr><tr><td style="font-weight:bold;vertical-align:top;">cmd_args</td><td style="vertical-align:top;">:</td><td><div><table></table></div></td></tr><tr><td style="font-weight:bold;vertical-align:top;">cmd_options</td><td style="vertical-align:top;">:</td><td><div>&lt;Values at 0x7fa6ec950680: {&#x27;verbose&#x27;: False, &#x27;ip&#x27;: &#x27;127.0.0.1&#x27;, &#x27;debuglevel&#x27;: 30, &#x27;with_scheduler&#x27;: False, &#x27;shutdown_timeout&#x27;: 5, &#x27;taskbar&#x27;: False, &#x27;with_coverage&#x27;: False, &#x27;pid_filename&#x27;: &#x27;httpserver.pid&#x27;, &#x27;maxthreads&#x27;: None, &#x27;softcron&#x27;: False, &#x27;server_name&#x27;: &#x27;HTY-L-PC09DD2CU&#x27;, &#x27;bpython&#x27;: False, &#x27;nogui&#x27;: False, &#x27;port&#x27;: 8000, &#x27;print_errors&#x27;: False, &#x27;extcron&#x27;: False, &#x27;runcron&#x27;: False, &#x27;run_system_tests&#x27;: False, &#x27;test&#x27;: None, &#x27;folder&#x27;: &#x27;/home/nyeinchan/web2py&#x27;, &#x27;config&#x27;: &#x27;&#x27;, &#x27;minthreads&#x27;: None, &#x27;shell&#x27;: None, &#x27;run&#x27;: &#x27;&#x27;, &#x27;log_filename&#x27;: &#x27;httpserver.log&#x27;, &#x27;profiler_dir&#x27;: None, &#x27;args&#x27;: [&#x27;&#x27;], &#x27;socket_timeout&#x27;: 5, &#x27;ssl_ca_certificate&#x27;: None, &#x27;scheduler&#x27;: None, &#x27;interfaces&#x27;: None, &#x27;ssl_private_key&#x27;: &#x27;&#x27;, &#x27;gae&#x27;: None, &#x27;password&#x27;: &#x27;******&#x27;, &#x27;request_queue_size&#x27;: 5, &#x27;ssl_certificate&#x27;: &#x27;&#x27;, &#x27;cronjob&#x27;: False, &#x27;numthreads&#x27;: None, &#x27;quiet&#x27;: False, &#x27;import_models&#x27;: False, &#x27;timeout&#x27;: 10, &#x27;plain&#x27;: False, &#x27;nobanner&#x27;: False}&gt;</div></td></tr><tr><td style="font-weight:bold;vertical-align:top;">db_sessions</td><td style="vertical-align:top;">:</td><td><div>set([])</div></td></tr><tr><td style="font-weight:bold;vertical-align:top;">debugging</td><td style="vertical-align:top;">:</td><td><div>False</div></td></tr><tr><td style="font-weight:bold;vertical-align:top;">gluon_parent</td><td style="vertical-align:top;">:</td><td><div>/home/nyeinchan/web2py</div></td></tr><tr><td style="font-weight:bold;vertical-align:top;">is_jython</td><td style="vertical-align:top;">:</td><td><div>False</div></td></tr><tr><td style="font-weight:bold;vertical-align:top;">is_pypy</td><td style="vertical-align:top;">:</td><td><div>False</div></td></tr><tr><td style="font-weight:bold;vertical-align:top;">is_source</td><td style="vertical-align:top;">:</td><td><div>True</div></td></tr><tr><td style="font-weight:bold;vertical-align:top;">local_hosts</td><td style="vertical-align:top;">:</td><td><div><table><tr><td><div>HTY-L-PC09DD2CU</div></td></tr><tr><td><div>::1</div></td></tr><tr><td><div>127.0.1.1</div></td></tr><tr><td><div>::ffff:127.0.0.1</div></td></tr><tr><td><div>127.0.0.1</div></td></tr></table></div></td></tr><tr><td style="font-weight:bold;vertical-align:top;">web2py_version</td><td style="vertical-align:top;">:</td><td><div>2.14.6-stable+timestamp.2016.05.10.00.21.47</div></td></tr></table></div></td></tr><tr><td style="font-weight:bold;vertical-align:top;">is_https</td><td style="vertical-align:top;">:</td><td><div>False</div></td></tr><tr><td style="font-weight:bold;vertical-align:top;">is_local</td><td style="vertical-align:top;">:</td><td><div>True</div></td></tr><tr><td style="font-weight:bold;vertical-align:top;">is_restful</td><td style="vertical-align:top;">:</td><td><div>False</div></td></tr><tr><td style="font-weight:bold;vertical-align:top;">is_scheduler</td><td style="vertical-align:top;">:</td><td><div>False</div></td></tr><tr><td style="font-weight:bold;vertical-align:top;">is_shell</td><td style="vertical-align:top;">:</td><td><div>False</div></td></tr><tr><td style="font-weight:bold;vertical-align:top;">now</td><td style="vertical-align:top;">:</td><td><div>datetime.datetime(2016, 9, 22, 16, 53, 32, 325458)</div></td></tr><tr><td style="font-weight:bold;vertical-align:top;">raw_args</td><td style="vertical-align:top;">:</td><td><div></div></td></tr><tr><td style="font-weight:bold;vertical-align:top;">raw_extension</td><td style="vertical-align:top;">:</td><td><div>None</div></td></tr><tr><td style="font-weight:bold;vertical-align:top;">url</td><td style="vertical-align:top;">:</td><td><div>/monitor</div></td></tr><tr><td style="font-weight:bold;vertical-align:top;">utcnow</td><td style="vertical-align:top;">:</td><td><div>datetime.datetime(2016, 9, 22, 10, 23, 32, 325473)</div></td></tr><tr><td style="font-weight:bold;vertical-align:top;">wsgi</td><td style="vertical-align:top;">:</td><td><div>&lt;gluon.main.LazyWSGI object at 0x7fa6ec6cdd90&gt;</div></td></tr></table></div>'
tRp58
sS'frames'
p59
(lp60
(dp61
S'file'
p62
S'/home/nyeinchan/web2py/gluon/restricted.py'
p63
sS'dump'
p64
(dp65
S'environment'
p66
S"{'A': <class 'gluon.html.A'>, 'ANY_OF': <class 'gluon.validators.ANY_OF'>, 'ASSIGNJS': <function ASSIGNJS>, 'AppConfig': <function AppConfig>, 'Auth': <class 'gluon.tools.Auth'>, 'B': <class 'gluon.html.B'>, 'BEAUTIFY': <class 'gluon.html.BEAUTIFY'>, 'BODY': <class 'gluon.html.BODY'>, 'BR': <class 'gluon.html.BR'>, 'BUTTON': <class 'gluon.html.BUTTON'>, ...}"
p67
sS'ccode'
p68
S'<code object <module> at 0x7fa6c9a68bb0, file "/.../applications/monitor/models/dbsetup.py", line 1>'
p69
ssS'lnum'
p70
I227
sS'lines'
p71
(dp72
I224
S'            ccode = code'
p73
sI225
S'        else:'
p74
sI226
S'            ccode = compile2(code, layer)'
p75
sI227
S'        exec ccode in environment'
p76
sI228
S'    except HTTP:'
p77
sI229
S'        raise'
p78
sI230
S'    except RestrictedError:'
p79
sI231
S'        # do not encapsulate (obfuscate) the original RestrictedError'
p80
sI222
S'    try:'
p81
sI223
S'        if isinstance(code, types.CodeType):'
p82
ssS'call'
p83
S'(code="from datetime import datetime\\nfrom gluon.contrib...\\n\\t\\tdict(name=myconf.get(\'default_type.usr\'))\\n\\t])\\n", environment={\'A\': <class \'gluon.html.A\'>, \'ANY_OF\': <class \'gluon.validators.ANY_OF\'>, \'ASSIGNJS\': <function ASSIGNJS>, \'AppConfig\': <function AppConfig>, \'Auth\': <class \'gluon.tools.Auth\'>, \'B\': <class \'gluon.html.B\'>, \'BEAUTIFY\': <class \'gluon.html.BEAUTIFY\'>, \'BODY\': <class \'gluon.html.BODY\'>, \'BR\': <class \'gluon.html.BR\'>, \'BUTTON\': <class \'gluon.html.BUTTON\'>, ...}, layer=\'/home/nyeinchan/web2py/applications/monitor/models/dbsetup.py\')'
p84
sS'func'
p85
S'restricted'
p86
sa(dp87
g62
S'/home/nyeinchan/web2py/applications/monitor/models/dbsetup.py'
p88
sg64
(dp89
S'builtinformat'
p90
S'<built-in function format>'
p91
ssg70
I190
sg71
(dp92
I192
S'## default user root'
p93
sI193
S'if db(db.auth_user).count() <1:'
p94
sI194
S'\tdb.auth_group.bulk_insert(['
p95
sI185
S'\t\t\treadable=True, writable=False),'
p96
sI186
S"\tField('modified_on', 'datetime', update=request.now,"
p97
sI187
S'\t\t\treadable=True, writable=False),'
p98
sI188
S"\tField('modified_by', 'reference auth_user', update=auth.user_id,"
p99
sI189
S'\t\t\treadable=True, writable=False),'
p100
sI190
S"\tformat='%(name)s')"
p101
sI191
S''
ssg83
S'()'
p102
sg85
S'<module>'
p103
sa(dp104
g62
S'/home/nyeinchan/web2py/gluon/packages/dal/pydal/base.py'
p105
sg64
(dp106
S'fields'
p107
S'(<pydal.objects.Field object>, <pydal.objects.Field object>, <pydal.objects.Field object>, <pydal.objects.Field object>, <pydal.objects.Field object>, <pydal.objects.Field object>, <pydal.objects.Field object>, <pydal.objects.Field object>, <pydal.objects.Field object>, <pydal.objects.Field object>, <pydal.objects.Field object>, <pydal.objects.Field object>, <pydal.objects.Field object>, <pydal.objects.Field object>)'
p108
sS'self'
p109
S'<DAL uri="mysql:******@localhost/devicemonitor">'
p110
sS'args'
p111
S"{'format': '%(name)s'}"
p112
sS'tablename'
p113
S"'device'"
p114
sS'table'
p115
S'undefined'
p116
sS'self.lazy_define_table'
p117
S'<bound method DAL.lazy_define_table of <DAL uri="mysql:******@localhost/devicemonitor">>'
p118
ssg70
I834
sg71
(dp119
I832
S'            table = None'
p120
sI833
S'        else:'
p121
sI834
S'            table = self.lazy_define_table(tablename,*fields,**args)'
p122
sI835
S'        if not tablename in self.tables:'
p123
sI836
S'            self.tables.append(tablename)'
p124
sI837
S'        return table'
p125
sI838
S''
sI829
S'                    % (tablename,invalid_args))'
p126
sI830
S'        if self._lazy_tables and tablename not in self._LAZY_TABLES:'
p127
sI831
S'            self._LAZY_TABLES[tablename] = (tablename,fields,args)'
p128
ssg83
S'(self=<DAL uri="mysql:******@localhost/devicemonitor">, tablename=\'device\', *fields=(<pydal.objects.Field object>, <pydal.objects.Field object>, <pydal.objects.Field object>, <pydal.objects.Field object>, <pydal.objects.Field object>, <pydal.objects.Field object>, <pydal.objects.Field object>, <pydal.objects.Field object>, <pydal.objects.Field object>, <pydal.objects.Field object>, <pydal.objects.Field object>, <pydal.objects.Field object>, <pydal.objects.Field object>, <pydal.objects.Field object>), **args={\'format\': \'%(name)s\'})'
p129
sg85
S'define_table'
p130
sa(dp131
g62
S'/home/nyeinchan/web2py/gluon/packages/dal/pydal/base.py'
p132
sg64
(dp133
S'polymodel'
p134
S'None'
p135
ssg70
I873
sg71
(dp136
I868
S'            try:'
p137
sI869
S'                GLOBAL_LOCKER.acquire()'
p138
sI870
S'                self._lastsql = self._adapter.create_table('
p139
sI871
S'                    table,migrate=migrate,'
p140
sI872
S'                    fake_migrate=fake_migrate,'
p141
sI873
S'                    polymodel=polymodel)'
p142
sI874
S'            finally:'
p143
sI875
S'                GLOBAL_LOCKER.release()'
p144
sI876
S'        else:'
p145
sI877
S'            table._dbt = None'
p146
ssg83
S'(self=<DAL uri="mysql:******@localhost/devicemonitor">, tablename=\'device\', *fields=(<pydal.objects.Field object>, <pydal.objects.Field object>, <pydal.objects.Field object>, <pydal.objects.Field object>, <pydal.objects.Field object>, <pydal.objects.Field object>, <pydal.objects.Field object>, <pydal.objects.Field object>, <pydal.objects.Field object>, <pydal.objects.Field object>, <pydal.objects.Field object>, <pydal.objects.Field object>, <pydal.objects.Field object>, <pydal.objects.Field object>), **args={\'format\': \'%(name)s\'})'
p147
sg85
S'lazy_define_table'
p148
sa(dp149
g62
S'/home/nyeinchan/web2py/gluon/packages/dal/pydal/adapters/base.py'
p150
sg64
(dp151
S'table'
p152
S'<Table device (id, name, device_type, model_id, ...reated_on, created_by, modified_on, modified_by)>'
p153
sS'table._tablename'
p154
S"'device'"
p155
sS'referenced'
p156
S"'general_table AS OS_Type'"
p157
sS'builtinKeyError'
p158
S"<type 'exceptions.KeyError'>"
p159
ssg70
I297
sg71
(dp160
I292
S"                        rtablename,rfieldname = referenced.split('.')"
p161
sI293
S'                        rtable = db[rtablename]'
p162
sI294
S'                        rfield = rtable[rfieldname]'
p163
sI295
S'                    except Exception as e:'
p164
sI296
S"                        self.db.logger.debug('Error: %s' %e)"
p165
sI297
S"                        raise KeyError('Cannot resolve reference %s in %s definition' % (referenced, table._tablename))"
p166
sI298
S''
sI299
S'                # must be PK reference or unique'
p167
sI300
S"                if getattr(rtable, '_primarykey', None) and rfieldname in rtable._primarykey or \\"
p168
sI301
S'                        rfield.unique:'
p169
ssg83
S'(self=<pydal.adapters.mysql.MySQLAdapter object>, table=<Table device (id, name, device_type, model_id, ...reated_on, created_by, modified_on, modified_by)>, migrate=True, fake_migrate=False, polymodel=None)'
p170
sg85
S'create_table'
p171
sasS'pyver'
p172
S'Python 2.7.12: /usr/bin/python (prefix: /usr)'
p173
sS'session'
p174
g57
(S's\x1a\x00\x00\x00<div><table></table></div>'
tRp175
sS'etype'
p176
S"<type 'exceptions.KeyError'>"
p177
sS'date'
p178
S'Thu Sep 22 16:53:32 2016'
p179
sS'response'
p180
g57
(S's2\x16\x00\x00<div><table><tr><td style="font-weight:bold;vertical-align:top;">body</td><td style="vertical-align:top;">:</td><td><div>&lt;cStringIO.StringO object at 0x7fa6c8a170a0&gt;</div></td></tr><tr><td style="font-weight:bold;vertical-align:top;">cookies</td><td style="vertical-align:top;">:</td><td><div><table><tr><td style="font-weight:bold;vertical-align:top;">session_id_monitor</td><td style="vertical-align:top;">:</td><td><div>127.0.0.1-db791a14-594a-40a5-8460-11ce1e69b91a<table><tr><td style="font-weight:bold;vertical-align:top;">comment</td><td style="vertical-align:top;">:</td><td><div></div></td></tr><tr><td style="font-weight:bold;vertical-align:top;">domain</td><td style="vertical-align:top;">:</td><td><div></div></td></tr><tr><td style="font-weight:bold;vertical-align:top;">expires</td><td style="vertical-align:top;">:</td><td><div></div></td></tr><tr><td style="font-weight:bold;vertical-align:top;">httponly</td><td style="vertical-align:top;">:</td><td><div></div></td></tr><tr><td style="font-weight:bold;vertical-align:top;">max-age</td><td style="vertical-align:top;">:</td><td><div></div></td></tr><tr><td style="font-weight:bold;vertical-align:top;">path</td><td style="vertical-align:top;">:</td><td><div>/</div></td></tr><tr><td style="font-weight:bold;vertical-align:top;">secure</td><td style="vertical-align:top;">:</td><td><div></div></td></tr><tr><td style="font-weight:bold;vertical-align:top;">version</td><td style="vertical-align:top;">:</td><td><div></div></td></tr></table></div></td></tr></table></div></td></tr><tr><td style="font-weight:bold;vertical-align:top;">delimiters</td><td style="vertical-align:top;">:</td><td><div><table><tr><td><div>{{</div></td></tr><tr><td><div>}}</div></td></tr></table></div></td></tr><tr><td style="font-weight:bold;vertical-align:top;">files</td><td style="vertical-align:top;">:</td><td><div><table></table></div></td></tr><tr><td style="font-weight:bold;vertical-align:top;">flash</td><td style="vertical-align:top;">:</td><td><div></div></td></tr><tr><td style="font-weight:bold;vertical-align:top;">form_label_separator</td><td style="vertical-align:top;">:</td><td><div></div></td></tr><tr><td style="font-weight:bold;vertical-align:top;">formstyle</td><td style="vertical-align:top;">:</td><td><div>bootstrap3_stacked</div></td></tr><tr><td style="font-weight:bold;vertical-align:top;">generic_patterns</td><td style="vertical-align:top;">:</td><td><div><table><tr><td><div>*</div></td></tr></table></div></td></tr><tr><td style="font-weight:bold;vertical-align:top;">headers</td><td style="vertical-align:top;">:</td><td><div><table><tr><td style="font-weight:bold;vertical-align:top;">X-Powered-By</td><td style="vertical-align:top;">:</td><td><div>web2py</div></td></tr></table></div></td></tr><tr><td style="font-weight:bold;vertical-align:top;">menu</td><td style="vertical-align:top;">:</td><td><div><table></table></div></td></tr><tr><td style="font-weight:bold;vertical-align:top;">meta</td><td style="vertical-align:top;">:</td><td><div><table></table></div></td></tr><tr><td style="font-weight:bold;vertical-align:top;">models_to_run</td><td style="vertical-align:top;">:</td><td><div><table><tr><td><div>^\\w+\\.py$</div></td></tr><tr><td><div>^default/\\w+\\.py$</div></td></tr><tr><td><div>^default/index/\\w+\\.py$</div></td></tr></table></div></td></tr><tr><td style="font-weight:bold;vertical-align:top;">postprocessing</td><td style="vertical-align:top;">:</td><td><div><table></table></div></td></tr><tr><td style="font-weight:bold;vertical-align:top;">session_client</td><td style="vertical-align:top;">:</td><td><div>127.0.0.1</div></td></tr><tr><td style="font-weight:bold;vertical-align:top;">session_cookie_compression_level</td><td style="vertical-align:top;">:</td><td><div>None</div></td></tr><tr><td style="font-weight:bold;vertical-align:top;">session_cookie_expires</td><td style="vertical-align:top;">:</td><td><div>None</div></td></tr><tr><td style="font-weight:bold;vertical-align:top;">session_data_name</td><td style="vertical-align:top;">:</td><td><div>session_data_monitor</div></td></tr><tr><td style="font-weight:bold;vertical-align:top;">session_file</td><td style="vertical-align:top;">:</td><td><div>None</div></td></tr><tr><td style="font-weight:bold;vertical-align:top;">session_filename</td><td style="vertical-align:top;">:</td><td><div>/home/nyeinchan/web2py/applications/monitor/sessions/127.0.0.1-db791a14-594a-40a5-8460-11ce1e69b91a</div></td></tr><tr><td style="font-weight:bold;vertical-align:top;">session_hash</td><td style="vertical-align:top;">:</td><td><div>c0762cbf4baf7f9af97c051e7fcb8083</div></td></tr><tr><td style="font-weight:bold;vertical-align:top;">session_id</td><td style="vertical-align:top;">:</td><td><div>127.0.0.1-db791a14-594a-40a5-8460-11ce1e69b91a</div></td></tr><tr><td style="font-weight:bold;vertical-align:top;">session_id_name</td><td style="vertical-align:top;">:</td><td><div>session_id_monitor</div></td></tr><tr><td style="font-weight:bold;vertical-align:top;">session_masterapp</td><td style="vertical-align:top;">:</td><td><div>monitor</div></td></tr><tr><td style="font-weight:bold;vertical-align:top;">session_new</td><td style="vertical-align:top;">:</td><td><div>True</div></td></tr><tr><td style="font-weight:bold;vertical-align:top;">session_storage_type</td><td style="vertical-align:top;">:</td><td><div>file</div></td></tr><tr><td style="font-weight:bold;vertical-align:top;">status</td><td style="vertical-align:top;">:</td><td><div>200</div></td></tr><tr><td style="font-weight:bold;vertical-align:top;">view</td><td style="vertical-align:top;">:</td><td><div>default/index.html</div></td></tr></table></div>'
tRp181
sS'locals'
p182
(dp183
S'rtablename'
p184
S"'model'"
p185
sS'referenced'
p186
S"'general_table AS OS_Type'"
p187
sS'migrate'
p188
S'True'
p189
sS'constraint_name'
p190
S"'device_os_type__constraint'"
p191
sS'table'
p192
S'<Table device (id, name, device_type, model_id, ...reated_on, created_by, modified_on, modified_by)>'
p193
sS'real_referenced'
p194
S"'model'"
p195
sS'postcreation_fields'
p196
S'[]'
p197
sS'field_type'
p198
S"'reference general_table AS OS_Type'"
p199
sS'self'
p200
S'<pydal.adapters.mysql.MySQLAdapter object>'
p201
sS'type_name'
p202
S"'reference'"
p203
sS'tablename'
p204
S"'device'"
p205
sS'field'
p206
S'<pydal.objects.Field object>'
p207
sS'ftype'
p208
S"'INT  , INDEX model_id__idx (model_id), FOREIGN K...model_id) REFERENCES model (id) ON DELETE CASCADE'"
p209
sS'rtable'
p210
S'<Table model (id, name, brand, is_active, created_on, created_by, modified_on, modified_by)>'
p211
sS'id_fieldname'
p212
S"'id'"
p213
sS'polymodel'
p214
S'None'
p215
sS'rfieldname'
p216
S"'id'"
p217
sS'ftype_info'
p218
S"{'constraint_name': 'device_model_id__constraint', 'field_name': 'model_id', 'foreign_key': 'model (id)', 'index_name': 'model_id__idx', 'null': '', 'on_delete_action': 'CASCADE', 'unique': ''}"
p219
sS'db'
p220
S'<DAL uri="mysql:******@localhost/devicemonitor">'
p221
sS'fake_migrate'
p222
S'False'
p223
sS'e'
S"ValueError('need more than 1 value to unpack',)"
p224
sS'sql_fields'
p225
S"{'device_type': {'length': 512, 'notnull': False, 'sortable': 3, 'sql': 'INT  , INDEX device_type__idx (device_type), FOR...) REFERENCES general_table (id) ON DELETE CASCADE', 'type': 'reference general_table', 'unique': False}, 'id': {'length': 512, 'notnull': False, 'sortable': 1, 'sql': 'INT AUTO_INCREMENT NOT NULL', 'type': 'id', 'unique': False}, 'model_id': {'length': 512, 'notnull': False, 'sortable': 4, 'sql': 'INT  , INDEX model_id__idx (model_id), FOREIGN K...model_id) REFERENCES model (id) ON DELETE CASCADE', 'type': 'reference model', 'unique': False}, 'name': {'length': 512, 'notnull': False, 'sortable': 2, 'sql': 'VARCHAR(512)', 'type': 'string', 'unique': False}}"
p226
sS'field_name'
p227
S"'os_type'"
p228
sS'types'
p229
S"{'big-id': 'BIGINT AUTO_INCREMENT NOT NULL', 'big-reference': 'BIGINT %(null)s %(unique)s, INDEX %(index_name)s...ES %(foreign_key)s ON DELETE %(on_delete_action)s', 'bigint': 'BIGINT', 'blob': 'LONGBLOB', 'boolean': 'CHAR(1)', 'date': 'DATE', 'datetime': 'DATETIME', 'decimal': 'NUMERIC(%(precision)s,%(scale)s)', 'double': 'DOUBLE', 'float': 'FLOAT', ...}"
p230
sS'sortable'
p231
S'5'
sS'sql_fields_aux'
p232
S"{'device_type': {'sql': 'INT  , INDEX device_type__idx (device_type), FOR...) REFERENCES general_table (id) ON DELETE CASCADE'}, 'id': {'sql': 'INT AUTO_INCREMENT NOT NULL'}, 'model_id': {'sql': 'INT  , INDEX model_id__idx (model_id), FOREIGN K...model_id) REFERENCES model (id) ON DELETE CASCADE'}, 'name': {'sql': 'VARCHAR(512)'}}"
p233
sS'TFK'
p234
g45
sS'fields'
p235
S"['id INT AUTO_INCREMENT NOT NULL', 'name VARCHAR(512)', 'device_type INT  , INDEX device_type__idx (devic...) REFERENCES general_table (id) ON DELETE CASCADE', 'model_id INT  , INDEX model_id__idx (model_id), ...model_id) REFERENCES model (id) ON DELETE CASCADE']"
p236
sS'rfield'
p237
S'<pydal.objects.Field object>'
p238
sssS'traceback'
p239
S'Traceback (most recent call last):\n  File "/home/nyeinchan/web2py/gluon/restricted.py", line 227, in restricted\n    exec ccode in environment\n  File "/home/nyeinchan/web2py/applications/monitor/models/dbsetup.py", line 190, in <module>\n    format=\'%(name)s\')\n  File "/home/nyeinchan/web2py/gluon/packages/dal/pydal/base.py", line 834, in define_table\n    table = self.lazy_define_table(tablename,*fields,**args)\n  File "/home/nyeinchan/web2py/gluon/packages/dal/pydal/base.py", line 873, in lazy_define_table\n    polymodel=polymodel)\n  File "/home/nyeinchan/web2py/gluon/packages/dal/pydal/adapters/base.py", line 297, in create_table\n    raise KeyError(\'Cannot resolve reference %s in %s definition\' % (referenced, table._tablename))\nKeyError: \'Cannot resolve reference general_table AS OS_Type in device definition\'\n'
p240
s.