(dp1
S'output'
p2
S"<type 'exceptions.AttributeError'> 'DIV' object has no attribute 'custom'"
p3
sS'layer'
p4
S'/home/nyeinchan/web2py/applications/monitor/views/default/model.html'
p5
sS'code'
p6
S'response.write(\'<!DOCTYPE html>\\n<html class="no-js" lang="\', escape=False)\nresponse.write(T.accepted_language or \'en\')\nresponse.write(\'">\\n    <head>\\n        <meta charset="utf-8">\\n        <meta http-equiv="X-UA-Compatible" content="IE=edge\', escape=False)\nresponse.write(not request.is_local and \',chrome=1\' or \'\')\nresponse.write(\'">\\n        <meta name="viewport" content="width=device-width, initial-scale=1.0">\\n\\n        <meta name="description" content="A front-end template that helps you build fast, modern mobile web apps.">\\n        <title>\', escape=False)\nresponse.write(response.title or request.application)\nresponse.write(\'</title>\\n        <meta name="application-name" content="\', escape=False)\nresponse.write(request.application)\nresponse.write(\'">\\n        <meta name="google-site-verification" content="">\\n        <meta name="mobile-web-app-capable" content="yes">\\n        <link rel="icon" sizes="192x192" href="\', escape=False)\nresponse.write(URL(\'static\',\'images/android-desktop.png\'))\nresponse.write(\'">\\n\\n        <!-- Add to homescreen for Safari on iOS -->\\n        <meta name="apple-mobile-web-app-capable" content="yes">\\n        <meta name="apple-mobile-web-app-status-bar-style" content="black">\\n        <meta name="apple-mobile-web-app-title" content="Material Design Lite">\\n        <link rel="apple-touch-icon-precomposed" href="\', escape=False)\nresponse.write(URL(\'static\',\'images/ios-desktop.png\'))\nresponse.write(\'">\\n<!-- include stylesheets -->\\n        <link rel="stylesheet" href="\', escape=False)\nresponse.write(URL(\'static\',\'css/bootstrap.min.css\'))\nresponse.write(\'"/>\\n        <link rel="stylesheet" href="\', escape=False)\nresponse.write(URL(\'static\',\'css/web2py-bootstrap3.css\'))\nresponse.write(\'"/>\\n        <link rel="stylesheet" href="\', escape=False)\nresponse.write(URL(\'static\', \'css/custom.css\'))\nresponse.write(\'"/>\\n        <link rel="stylesheet" href="\', escape=False)\nresponse.write(URL(\'static\', \'css/mdl-style.css\'))\nresponse.write(\'"/>\\n        <link rel="stylesheet" href="\', escape=False)\nresponse.write(URL(\'static\', \'css/myansanspro.css\'))\nresponse.write(\'"/>\\n        <link rel="stylesheet" href="\', escape=False)\nresponse.write(URL(\'static\', \'css/material.min.css\'))\nresponse.write(\'"/>\\n        <link rel="stylesheet" href="\', escape=False)\nresponse.write(URL(\'static\', \'css/materialicons.css\'))\nresponse.write(\'"/>\\n        <link rel="shortcut icon" href="\', escape=False)\nresponse.write(URL(\'static\',\'images/favicon.ico\'))\nresponse.write(\'" type="image/x-icon"/>\\n        <link rel="apple-touch-icon" href="\', escape=False)\nresponse.write(URL(\'static\',\'images/favicon.png\'))\nresponse.write(\'"/>\\n\\n        <script src="\', escape=False)\nresponse.write(URL(\'static\',\'js/modernizr-2.8.3.min.js\'))\nresponse.write(\'"></script>\\n            \', escape=False)\nresponse.write(\'<script type="text/javascript"><!--\\n    // These variables are used by the web2py_ajax_init function in web2py_ajax.js (which is loaded below).\\n    var w2p_ajax_confirm_message = "\', escape=False)\nresponse.write(T(\'Are you sure you want to delete this object?\'))\nresponse.write(\'";\\n    var w2p_ajax_disable_with_message = "\', escape=False)\nresponse.write(T(\'Working...\'))\nresponse.write(\'";\\n    var w2p_ajax_date_format = "\', escape=False)\nresponse.write(T(\'%Y-%m-%d\'))\nresponse.write(\'";\\n    var w2p_ajax_datetime_format = "\', escape=False)\nresponse.write(T(\'%Y-%m-%d %H:%M:%S\'))\nresponse.write(\'";\\n    var ajax_error_500 = \\\'\', escape=False)\nresponse.write(T.M(\'An error occured, please [[reload %s]] the page\') % URL(args=request.args, vars=request.get_vars))\nresponse.write("\'\\n    //--></script>\\n", escape=False)\nresponse.files.insert(0,URL(\'static\',\'js/jquery.js\'))\nresponse.files.insert(1,URL(\'static\',\'css/calendar.css\'))\nresponse.files.insert(2,URL(\'static\',\'js/calendar.js\'))\nresponse.files.insert(3,URL(\'static\',\'js/web2py.js\'))\nresponse.include_meta()\nresponse.include_files()\nresponse.write(\'\\n\', escape=False)\nresponse.write(\'\\n    </head>\\n    <body>\\n<!-- Always shows a header, even in smaller screens. -->\\n\\n<!-- Masthead ===================================== -->\\n        \', escape=False)\nresponse.write(\'\\n        <div class="mdl-layout mdl-js-layout mdl-layout--fixed-header ">\\n        <header class="mdl-layout__header">\\n            <div class="mdl-layout__header-row">\\n<!-- Title -->\\n                <span class="mdl-layout-title">\', escape=False)\nresponse.write(response.title or request.application)\nresponse.write(\'</span>\\n<!-- Add spacer, to align navigation to the right -->\\n                <div class="mdl-layout-spacer"></div>\\n<!-- Navigation. We hide it in small screens. -->\\n                <nav class="mdl-navigation mdl-layout--large-screen-only">\\n                    <a class="mdl-navigation__link" href="\', escape=False)\nresponse.write(URL(\'default\', \'index\'))\nresponse.write(\'">Home</a>\\n                    <a class="mdl-navigation__link dropdown" href="\', escape=False)\nresponse.write(URL(\'default\', \'brand\'))\nresponse.write(\'">Brand</a>\\n                    <a class="mdl-navigation__link" href="\', escape=False)\nresponse.write(URL(\'default\', \'model\'))\nresponse.write(\'">Model</a>\\n                    <a class="mdl-navigation__link" href="\', escape=False)\nresponse.write(URL(\'default\', \'about\'))\nresponse.write(\'">About</a>\\n                </nav>\\n            </div>\\n        </header>\\n        \', escape=False)\nresponse.write(\'\\n\\n        <div class="mdl-layout__drawer">\\n            <span class="mdl-layout-title">Menu</span>\\n            <nav class="mdl-navigation">\\n                <a class="mdl-navigation__link" href="\', escape=False)\nresponse.write(URL(\'default\', \'index\'))\nresponse.write(\'">Home</a>\\n                <a class="mdl-navigation__link" href="\', escape=False)\nresponse.write(URL(\'default\', \'brand\'))\nresponse.write(\'">Brand</a>\\n                <a class="mdl-navigation__link" href="\', escape=False)\nresponse.write(URL(\'default\', \'model\'))\nresponse.write(\'">Model</a>\\n                <a class="mdl-navigation__link" href="\', escape=False)\nresponse.write(URL(\'default\', \'about\'))\nresponse.write(\'">About</a>\\n            </nav>\\n        </div>\\n        <main class="mdl-layout__content">\\n            <div class="page-content">\\n<!-- Main ========================================= -->\\n<!-- Begin page content -->\\n                \', escape=False)\nresponse.write(\'\\n                    \', escape=False)\nresponse.write(\'\\n<main class="section--center mdl-grid">\\n\\n    <section class="section--center mdl-grid mdl-grid--no-spacing mdl-shadow--2dp">\\n        <div class="mdl-card mdl-cell mdl-cell--12-col">\\n\\n          <div class="mdl-card__supporting-text mdl-grid mdl-grid--no-spacing">\\n              <div class="mdl-card__title">\\n                  <h2 class="mdl-card__title-text">\', escape=False)\nresponse.write(response.moduleTitle)\nresponse.write(\'</h2>\\n                </div>\\n            <!-- <div class="section__circle-container mdl-cell mdl-cell--12-col mdl-cell--8-col-phone">\\n                \', escape=False)\nresponse.write(form.custom.begin)\nresponse.write(\'\\n                <div class="mdl-textfield mdl-js-textfield ">\\n                    <input class="mdl-textfield__input string" id="model.name" type="text" name="name" />\\n                    <label class="mdl-textfield__label" for="name">Model Name</label>\\n                </div>\\n                <div class="mdl-select mdl-js-select mdl-select--floating-label">\\n                    <select class="mdl-select__input" id="brand" name="model.brand">\\n                    </select>\\n                    <label class="mdl-select__label" for="brand">Choose Brand</label>\\n                </div>\\n                \', escape=False)\nresponse.write(form.custom.end)\nresponse.write(\' -->\\n                \', escape=False)\nresponse.write(form)\nresponse.write(\'\\n            </div>\\n          </div>\\n        </div>\\n    </section>\\n</main>\\n\', escape=False)\nresponse.write(\'\\n                \', escape=False)\nresponse.write(\'\\n            </div>\\n        </main>\\n    </div>\\n    \', escape=False)\nresponse.write(\'\\n<!-- this is default footer -->\\n    <div id="web2py-my-toast" class="mdl-js-snackbar mdl-snackbar">\\n        <div class="mdl-snackbar__text"></div>\\n        <button class="mdl-snackbar__action" type="button"></button>\\n    </div>\\n    \', escape=False)\nresponse.write(\'\\n    <!-- The javascript =============================== -->\\n    <script src="\', escape=False)\nresponse.write(URL(\'static\',\'js/bootstrap.min.js\'))\nresponse.write(\'"></script>\\n    <script src="\', escape=False)\nresponse.write(URL(\'static\',\'js/web2py-bootstrap3.js\'))\nresponse.write(\'"></script>\\n    <script src="\', escape=False)\nresponse.write(URL(\'static\', \'js/material.min.js\'))\nresponse.write(\'"></script>\\n\\n    \', escape=False)\nresponse.write("\\n    <script>\\n        (function() {\\n            \'use strict\';\\n            var snackbarContainer = document.querySelector(\'#web2py-my-toast\');\\n            var data = {message: \'", escape=False)\nresponse.write(response.flash or \'\')\nresponse.write("\'};\\n            var timeout_id = setTimeout(function () {\\n                snackbarContainer.MaterialSnackbar.showSnackbar(data);\\n            }, 1000);\\n        }());\\n    </script>\\n  </body>\\n</html>\\n", escape=False)'
p7
sS'snapshot'
p8
(dp9
sS'traceback'
p10
S'Traceback (most recent call last):\n  File "/home/nyeinchan/web2py/gluon/restricted.py", line 227, in restricted\n    exec ccode in environment\n  File "/home/nyeinchan/web2py/applications/monitor/views/default/model.html", line 77, in <module>\nAttributeError: \'DIV\' object has no attribute \'custom\'\n'
p11
s.