(dp1
S'output'
p2
S"<type 'exceptions.TypeError'> __init__() got an unexpected keyword argument 'format'"
p3
sS'layer'
p4
S'/home/nyeinchan/web2py/applications/monitor/models/dbsetup.py'
p5
sS'code'
p6
S'from datetime import datetime\nfrom gluon.contrib.appconfig import AppConfig\nmyconf = AppConfig(reload=True)\n\n\n## brand\ndb.define_table(\'brand\',\n\tField(\'name\', \'string\', requires=[IS_NOT_EMPTY()], label="Brand"),\n\tField(\'is_active\', \'boolean\', default=True, label="Active"),\n\tField(\'created_on\', \'datetime\', default=request.now,\n\t\t\treadable=True, writable=False),\n\tField(\'created_by\', \'reference auth_user\', default=auth.user_id,\n\t\t\treadable=True, writable=False),\n\tField(\'modified_on\', \'datetime\', update=request.now,\n\t\t\treadable=True, writable=False),\n\tField(\'modified_by\', \'reference auth_user\', update=auth.user_id,\n\t\t\treadable=True, writable=False),\n\tformat=\'%(name)s\'\n)\n## model\ndb.define_table(\'model\',\n\tField(\'name\', \'string\', requires=[IS_NOT_EMPTY()], label="Model"),\n\tField(\'brand\', \'reference brand\', requires=[ IS_IN_DB(db, db.brand.id, \'%(name)s\'), IS_NOT_EMPTY() ], label="Brand"),\n\tField(\'is_active\', \'boolean\', default=True, label="Active"),\n\tField(\'created_on\', \'datetime\', default=request.now,\n\t\t\treadable=True, writable=False),\n\tField(\'created_by\', \'reference auth_user\', default=auth.user_id,\n\t\t\treadable=True, writable=False),\n\tField(\'modified_on\', \'datetime\', update=request.now,\n\t\t\treadable=True, writable=False),\n\tField(\'modified_by\', \'reference auth_user\', update=auth.user_id,\n\t\t\treadable=True, writable=False),\n\tformat = \'%(name)s\')\n\ndb.model.brand.requires=IS_IN_DB(db, db.brand.id, \'%(name)s\')\n\n\n## config group\ndb.define_table(\'config_group\',\n\tField(\'name\', \'string\', requires=[IS_NOT_EMPTY()]),\n\tField(\'is_active\', \'boolean\', default=True),\n\tformat=\'%(name)s\'\n)\n\n## config\ndb.define_table(\'general_table\',\n\tField(\'code\', \'string\', requires=[IS_NOT_EMPTY()], label="Code"),\n\tField(\'name\', \'string\', requires=[IS_NOT_EMPTY()], label="Name"),\n\tField(\'config_type\', \'reference config_group\', requires=[IS_IN_DB(db, db.config_group.id, \'%(name)s\'), IS_NOT_EMPTY()], label="Type"),\n\tField(\'is_active\', \'boolean\', default=True, label="Active"),\n\tField(\'created_on\', \'datetime\', default=request.now,\n\t\t\treadable=True, writable=False),\n\tField(\'created_by\', \'reference auth_user\', default=auth.user_id,\n\t\t\treadable=True, writable=False),\n\tField(\'modified_on\', \'datetime\', update=request.now,\n\t\t\treadable=True, writable=False),\n\tField(\'modified_by\', \'reference auth_user\', update=auth.user_id,\n\t\t\treadable=True, writable=False),\n\tformat=\'%(name)s\'\n)\ndb.general_table.config_type.requires=IS_IN_DB(db, db.config_group.id, \'%(name)s\')\n\n## Room\ndb.define_table(\'room\',\n\tField(\'name\', \'string\', requires=[IS_NOT_EMPTY()], label="Room"),\n\tField(\'config\', \'reference general_table\', requires=[\n\tIS_IN_DB(db(db.general_table.config_type ==db(db.config_group.name==myconf.get(\'default_type.loc\')).select(db.config_group.id)),\n\tdb.general_table.id, \'%(name)s\'),\n\tIS_NOT_EMPTY() ], label="Location"),\n\tField(\'is_active\', \'boolean\', default=True, label="Active"),\n\tField(\'created_on\', \'datetime\', default=request.now,\n\t\t\treadable=True, writable=False),\n\tField(\'created_by\', \'reference auth_user\', default=auth.user_id,\n\t\t\treadable=True, writable=False),\n\tField(\'modified_on\', \'datetime\', update=request.now,\n\t\t\treadable=True, writable=False),\n\tField(\'modified_by\', \'reference auth_user\', update=auth.user_id,\n\t\t\treadable=True, writable=False),\n\tformat=\'%(name)s\'\n)\n\nlocation_id = \'\'\n\nfor id in db(db.config_group.name==myconf.get(\'default_type.loc\')).select(db.config_group.id):\n    location_id = id\nl_code = db(db.general_table.config_type == location_id).select(db.general_table.id, db.general_table.code)\ndb.room.config.requires=IS_IN_DB(db(db.general_table.config_type == location_id), db.general_table.id, \'%(name)s\', sort=True)\n\n\n## apps\ndb.define_table(\'apps\',\n\tField(\'name\', \'string\', requires=[IS_NOT_EMPTY()], label="Name"),\n\tField(\'app_type\', \'reference general_table\', requires=[\n\tIS_IN_DB(db(db.general_table.config_type == db(db.config_group.name==myconf.get(\'default_type.app\')).select(db.config_group.id)),\n\tdb.general_table.id, \'%(name)s\'),\n\tIS_NOT_EMPTY()], label="Type"),\n\tField(\'is_active\', \'boolean\', default=True, label="Active"),\n\tField(\'created_on\', \'datetime\', default=request.now,\n\t\t\treadable=True, writable=False),\n\tField(\'created_by\', \'reference auth_user\', default=auth.user_id,\n\t\t\treadable=True, writable=False),\n\tField(\'modified_on\', \'datetime\', update=request.now,\n\t\t\treadable=True, writable=False),\n\tField(\'modified_by\', \'reference auth_user\', update=auth.user_id,\n\t\t\treadable=True, writable=False),\n\tformat=\'%(name)s\'\n)\n\napplication_id=\'\'\nfor id in db(db.config_group.name==myconf.get(\'default_type.app\')).select(db.config_group.id):\n    application_id = id\ndb.apps.app_type.requires=IS_IN_DB(db(db.general_table.config_type == application_id), db.general_table.id, \'%(name)s\', sort=True)\n\n## employee\ndb.define_table(\'employee\',\n\tField(\'code\', \'string\', requires=[IS_NOT_EMPTY()], label="Code"),\n\tField(\'name\', \'string\', requires=[IS_NOT_EMPTY()], label="Name"),\n\tField(\'job_title\', \'string\', label="Job Title"),\n\tField(\'department\', \'reference general_table\', requires=[\n\tIS_IN_DB(db(db.general_table.config_type == db(db.config_group.name==myconf.get(\'default_type.dpt\')).select(db.config_group.id)),\n\tdb.general_table.id, \'%(name)s\'),\n\tIS_NOT_EMPTY()], label="Department"),\n\tField(\'is_active\', \'boolean\', default=True, label="Active"),\n\tField(\'created_on\', \'datetime\', default=request.now,\n\t\t\treadable=True, writable=False),\n\tField(\'created_by\', \'reference auth_user\', default=auth.user_id,\n\t\t\treadable=True, writable=False),\n\tField(\'modified_on\', \'datetime\', update=request.now,\n\t\t\treadable=True, writable=False),\n\tField(\'modified_by\', \'reference auth_user\', update=auth.user_id,\n\t\t\treadable=True, writable=False),\n\tformat=\'%(name)s\')\n\ndepartment_id = \'\'\nfor id in db(db.config_group.name==myconf.get(\'default_type.dpt\')).select(db.config_group.id):\n    department_id = id\ndb.employee.department.requires=IS_IN_DB(db(db.general_table.config_type == department_id), db.general_table.id, \'%(name)s\', sort=True)\n\n##sim\ndb.define_table(\'sim\',\n\tField(\'sim_number\', \'string\', requires=[IS_NOT_EMPTY()],label="Phone Number"),\n\tField(\'brand_type\', \'reference general_table\', requires=[\n\tIS_IN_DB(db(db.general_table.config_type == db(db.config_group.name==myconf.get(\'default_type.opt\')).select(db.config_group.id)),\n\tdb.general_table.id, \'%(name)s\'),\n\tIS_NOT_EMPTY()], label="Operator"),\n\tField(\'empty_col\', \'string\', requires=[IS_NOT_EMPTY()], label="Empty", default=None, readable=True, writable=False),\n\tField(\'plan_type\', \'reference general_table\', requires=[\n\tIS_IN_DB(db(db.general_table.config_type == db(db.config_group.name==myconf.get(\'default_type.pln\')).select(db.config_group.id)),\n\tdb.general_table.id, \'%(name)s\'),\n\tIS_NOT_EMPTY()], label="Plan"),\n\tField(\'is_active\', \'boolean\', default=True, label="Active"),\n\tField(\'created_on\', \'datetime\', default=request.now,\n\t\t\treadable=True, writable=False),\n\tField(\'created_by\', \'reference auth_user\', default=auth.user_id,\n\t\t\treadable=True, writable=False),\n\tField(\'modified_on\', \'datetime\', update=request.now,\n\t\t\treadable=True, writable=False),\n\tField(\'modified_by\', \'reference auth_user\', update=auth.user_id,\n\t\t\treadable=True, writable=False),\n\tformat=\'%(name)s\'\n)\noperator_id = \'\'\nplan_id = \'\'\nfor id in db(db.config_group.name==myconf.get(\'default_type.opt\')).select(db.config_group.id):\n\toperator_id = id\ndb.sim.brand_type.requires=IS_IN_DB(db(db.general_table.config_type == operator_id), db.general_table.id, \'%(name)s\', sort=True)\nfor id in db(db.config_group.name==myconf.get(\'default_type.pln\')).select(db.config_group.id):\n\toperator_id = id\ndb.sim.plan_type.requires=IS_IN_DB(db(db.general_table.config_type == plan_id), db.general_table.id, \'%(name)s\', sort=True)\n\n## email\ndb.define_table(\'email_account\',\n\tField(\'username\', \'string\', requires=[IS_NOT_EMPTY()], label="Email Address"),\n\tField(\'default_password\', \'string\', label="Default Password"),\n\tField(\'user_type\', \'reference general_table\', requires=[\n\tIS_IN_DB(db(db.general_table.config_type == db(db.config_group.name==myconf.get(\'default_type.user\')).select(db.config_group.id)),\n\tdb.general_table.id, \'%(name)s\'),\n\tIS_NOT_EMPTY()], label="User Type"),\n\tField(\'empty_col\', \'string\', requires=[IS_NOT_EMPTY()], default=None, label="Empty", readable=True, writable=False),\n\tField(\'license_type\', \'reference general_table\', requires=[\n\tIS_IN_DB(db(db.general_table.config_type == db(db.config_group.name==myconf.get(\'default_type.lns\')).select(db.config_group.id)),\n\tdb.general_table.id, \'%(name)s\'),\n\tIS_NOT_EMPTY()], label="License Type"),\n\tField(\'is_used\', \'boolean\', default=True, label="Used"),\n\tField(\'is_active\', \'boolean\', default=True, label="Active"),\n\tField(\'created_on\', \'datetime\', default=request.now,\n\t\t\treadable=True, writable=False),\n\tField(\'created_by\', \'reference auth_user\', default=auth.user_id,\n\t\t\treadable=True, writable=False),\n\tField(\'modified_on\', \'datetime\', update=request.now,\n\t\t\treadable=True, writable=False),\n\tField(\'modified_by\', \'reference auth_user\', update=auth.user_id,\n\t\t\treadable=True, writable=False),\n\tformat=\'%(name)s\')\n\nuser_id = \'\'\nlicense_id = \'\'\nfor id in db(db.config_group.name==myconf.get(\'default_type.usr\')).select(db.config_group.id):\n    user_id = id\ndb.email_account.user_type.requires=IS_IN_DB(db(db.general_table.config_type == user_id), db.general_table.id, \'%(name)s\', sort=True)\nfor id in db(db.config_group.name==myconf.get(\'default_type.lns\')).select(db.config_group.id):\n    license_id = id\ndb.email_account.license_type.requires=IS_IN_DB(db(db.general_table.config_type == license_id), db.general_table.id, \'%(name)s\', sort=True)\n\n## email\ndb.define_table(\'device\',\n\tField(\'name\', \'string\', requires=[IS_NOT_EMPTY()], label="Name"),\n\tField(\'device_type\', \'reference general_table\', requires=[\n\tIS_IN_DB(db(db.general_table.config_type == db(db.config_group.name==myconf.get(\'default_type.dvc\')).select(db.config_group.id)),\n\tdb.general_table.id, \'%(name)s\'),\n\tIS_NOT_EMPTY()], label="Type"),\n\tField(\'model_id\', \'reference model\', requires=[ IS_IN_DB(db, db.model.id, \'%(name)s\'), IS_NOT_EMPTY() ], label="Model"),\n\tField(\'os_type\', \'reference general_table\', requires=[\n\tIS_IN_DB(db(db.general_table.config_type == db(db.config_group.name==myconf.get(\'default_type.oss\')).select(db.config_group.id)),\n\tdb.general_table.id, \'%(name)s\'),\n\tIS_NOT_EMPTY()], label="Operation System"),\n\tField(\'cpu\', \'string\', requires=[IS_NOT_EMPTY()], label="CPU"),\n\tField(\'ram\', \'string\', requires=[IS_NOT_EMPTY()], label="RAM"),\n\tField(\'hard_disk\', \'string\', requires=[IS_NOT_EMPTY()], label="HDD"),\n\tField(\'drive\', \'string\', label="CD/DVD"),\n\tField(\'screen_size\', \'string\', label="Display"),\n\tField(\'is_active\', \'boolean\', default=True, label="Active"),\n\tField(\'created_on\', \'datetime\', default=request.now,\n\t\t\treadable=True, writable=False),\n\tField(\'created_by\', \'reference auth_user\', default=auth.user_id,\n\t\t\treadable=True, writable=False),\n\tField(\'modified_on\', \'datetime\', update=request.now,\n\t\t\treadable=True, writable=False),\n\tField(\'modified_by\', \'reference auth_user\', update=auth.user_id,\n\t\t\treadable=True, writable=False),\n\tformat=\'%(name)s\')\n\n\ndevice_id = \'\'\nos_id = \'\'\ndb.device.model_id.requires=IS_IN_DB(db, db.model.id, \'%(name)s\')\nfor id in db(db.config_group.name==myconf.get(\'default_type.dvc\')).select(db.config_group.id):\n    device_id = id\ndb.device.device_type.requires=IS_IN_DB(db(db.general_table.config_type == device_id), db.general_table.id, \'%(name)s\', sort=True)\nd_code = db(db.general_table.config_type == device_id).select(db.general_table.id, db.general_table.code)\nfor id in db(db.config_group.name==myconf.get(\'default_type.oss\')).select(db.config_group.id):\n    os_id = id\ndb.device.os_type.requires=IS_IN_DB(db(db.general_table.config_type == os_id), db.general_table.id, \'%(name)s\', sort=True)\ndb.device.name.readonly = True\n\n\n## Rent Device\ndb.define_table(\'rent\',\n\tField(\'employee_id\', \'reference employee\', requires=IS_NOT_EMPTY(), label="Employee"),\n\tField(\'rent_date\', \'datetime\', requires=IS_NOT_EMPTY(),  default=request.now, label="Rent Date"),\n\tField(\'device_id\', \'reference device\', requires=IS_NOT_EMPTY(), label="Device"),\n\tField(\'serial_number\', \'string\', requires=IS_NOT_EMPTY(), label="S/N or Assets Number"),\n\tField(\'rent_desc\', \'string\', label="Rent Description"),\n\tField(\'is_received\', \'boolean\', default=False, label="Received"),\n\tField(\'receive_date\', \'datetime\', format="%B %d, %Y", label="Receive Date"),\n\tField(\'created_on\', \'datetime\', default=request.now,\n\t\t\treadable=True, writable=False),\n\tField(\'created_by\', \'reference auth_user\', default=auth.user_id,\n\t\t\treadable=True, writable=False),\n\tField(\'modified_on\', \'datetime\', update=request.now,\n\t\t\treadable=True, writable=False),\n\tField(\'modified_by\', \'reference auth_user\', update=auth.user_id,\n\t\t\treadable=True, writable=False),\n\n)\ndb.rent.rent_date.represent= lambda x, row: x.strftime("%B %d, %Y")\ndb.rent.receive_date.show_if = (db.rent.is_received == True)\ndb.rent.employee_id.requires = IS_IN_DB(db(db.employee.is_active == True),\n\t\t\t\t\t\t\t\t\tdb.employee.id, \'%(name)s\', sort=True)\ndb.rent.device_id.requires = IS_IN_DB(db(db.device.is_active == True),\n\t\t\t\t\t\t\t\t\t\t  db.device.id, \'%(name)s\', sort=True)\n\n\ndb.define_table(\'assign\',\n    Field(\'employee_id\', \'reference employee\', label="Employee"),\n    Field(\'assign_date\', \'datetime\', default=request.now, label="Assign Date"),\n\tField(\'email_id\', \'reference email_account\', label="E-Mail"),\n\tField(\'room_id\', \'reference room\', label="Room"),\n\tField(\'is_active\', \'boolean\', default=True, label="Active"),\n\tField(\'created_on\', \'datetime\', default=request.now,\n\t\t\treadable=True, writable=False),\n\tField(\'created_by\', \'reference auth_user\', default=auth.user_id,\n\t\t\treadable=True, writable=False),\n\tField(\'modified_on\', \'datetime\', update=request.now,\n\t\t\treadable=True, writable=False),\n\tField(\'modified_by\', \'reference auth_user\', update=auth.user_id,\n\t\t\treadable=True, writable=False),\n    format=lambda r: "%s_%s" % (r.assign_date.strftime("%Y%m%d"),\n                                   db.employee(r.employee_id).name))\n\n\ndb.assign.employee_id.requires = [IS_IN_DB(db(db.employee.is_active == True),\n\t\t\t\t\t\t\t\t\tdb.employee.id, \'%(name)s\'),\n\t\t\t\t\t\t\t\t  IS_NOT_EMPTY()]\ndb.assign.assign_date.requires = [IS_NOT_EMPTY()]\ndb.assign.email_id.requires = [IS_IN_DB(db(db.email_account.is_used == False and\n\t\t\t\t\t\t\t\t\tdb.email_account.is_active == True),\n\t\t\t\t\t\t\t\t\tdb.email_account.id, \'%(username)s\'),\n\t\t\t\t\t\t\t   IS_NOT_EMPTY()]\ndb.assign.room_id.requires = [IS_IN_DB(db(db.room.is_active == True),\n\t\t\t\t\t\t\t\t\tdb.room.id, \'%(name)s\'),\n\t\t\t\t\t\t\t  IS_NOT_EMPTY()]\n\n\ndb.define_table(\'assign_detail\',\n    Field(\'assign_id\', \'reference assign\'),\n    Field(\'device_id\', \'reference device\'),\n    Field(\'serial\', \'string\'),\n    Field(\'asset_number\', \'string\'),\n    Field(\'device_color\', \'string\')\n    )\n\n\n## default user root\nif db(db.auth_user).count() <1:\n\tdb.auth_group.bulk_insert([\n\t\tdict(role=\'Admin\', description=\'System user\'),\n\t\tdict(role=\'Manager\', description=\'Manager\'),\n\t\tdict(role=\'User\', description=\'User\')\n\t])\n\n\tdb.auth_user.bulk_insert([\n\t\tdict(\n\t\t\tfirst_name=\'System\',\n\t\t\tlast_name=\'Admin\',\n\t\t\temail=\'root@coca-cola.com.mm\',\n\t\t\tpassword=db.auth_user.password.validate(\'C0ke@12345\')[0]\n\t\t),\n\t\tdict(\n\t\t\tfirst_name=\'Nyein\',\n\t\t\tlast_name=\'Chan\',\n\t\t\temail=\'nyeinchan@coca-cola.com.mm\',\n\t\t\tpassword=db.auth_user.password.validate(\'Basn4@C01\')[0]\n\t\t)\n\t])\n\n\tauth.add_membership(user_id=1, group_id=1)\n\tauth.add_membership(user_id=2, group_id=1)\n\nif db(db.config_group).count() < 1:\n\tdb.config_group.bulk_insert([\n\t\tdict(name=myconf.get(\'default_type.acs\')),\n\t\tdict(name=myconf.get(\'default_type.app\')),\n\t\tdict(name=myconf.get(\'default_type.dpt\')),\n\t\tdict(name=myconf.get(\'default_type.dvc\')),\n\t\tdict(name=myconf.get(\'default_type.eml\')),\n\t\tdict(name=myconf.get(\'default_type.loc\')),\n\t\tdict(name=myconf.get(\'default_type.lnc\')),\n\t\tdict(name=myconf.get(\'default_type.opt\')),\n\t\tdict(name=myconf.get(\'default_type.pln\')),\n\t\tdict(name=myconf.get(\'default_type.usr\'))\n\t])\n'
p7
sS'snapshot'
p8
(dp9
S'exception'
p10
(dp11
S'__hash__'
p12
S"<method-wrapper '__hash__' of exceptions.TypeError object>"
p13
sS'__setattr__'
p14
S"<method-wrapper '__setattr__' of exceptions.TypeError object>"
p15
sS'__reduce_ex__'
p16
S'<built-in method __reduce_ex__ of exceptions.TypeError object>'
p17
sS'__getslice__'
p18
S"<method-wrapper '__getslice__' of exceptions.TypeError object>"
p19
sS'__getitem__'
p20
S"<method-wrapper '__getitem__' of exceptions.TypeError object>"
p21
sS'__setstate__'
p22
S'<built-in method __setstate__ of exceptions.TypeError object>'
p23
sS'args'
p24
S'("__init__() got an unexpected keyword argument \'format\'",)'
p25
sS'__reduce__'
p26
S'<built-in method __reduce__ of exceptions.TypeError object>'
p27
sS'__str__'
p28
S"<method-wrapper '__str__' of exceptions.TypeError object>"
p29
sS'__format__'
p30
S'<built-in method __format__ of exceptions.TypeError object>'
p31
sS'__getattribute__'
p32
S"<method-wrapper '__getattribute__' of exceptions.TypeError object>"
p33
sS'__class__'
p34
S"<type 'exceptions.TypeError'>"
p35
sS'__unicode__'
p36
S'<built-in method __unicode__ of exceptions.TypeError object>'
p37
sS'__delattr__'
p38
S"<method-wrapper '__delattr__' of exceptions.TypeError object>"
p39
sS'__subclasshook__'
p40
S'<built-in method __subclasshook__ of type object>'
p41
sS'__repr__'
p42
S"<method-wrapper '__repr__' of exceptions.TypeError object>"
p43
sS'__dict__'
p44
S'{}'
p45
sS'__sizeof__'
p46
S'<built-in method __sizeof__ of exceptions.TypeError object>'
p47
sS'__doc__'
p48
S"'Inappropriate argument type.'"
p49
sS'__init__'
p50
S"<method-wrapper '__init__' of exceptions.TypeError object>"
p51
sS'__new__'
p52
S'<built-in method __new__ of type object>'
p53
ssS'evalue'
p54
S"__init__() got an unexpected keyword argument 'format'"
p55
sS'request'
p56
cgluon.html
XML_unpickle
p57
(S's\xd8b\x00\x00<div><table><tr><td style="font-weight:bold;vertical-align:top;">ajax</td><td style="vertical-align:top;">:</td><td><div>False</div></td></tr><tr><td style="font-weight:bold;vertical-align:top;">application</td><td style="vertical-align:top;">:</td><td><div>monitor</div></td></tr><tr><td style="font-weight:bold;vertical-align:top;">args</td><td style="vertical-align:top;">:</td><td><div><table><tr><td><div>rent</div></td></tr><tr><td><div>new</div></td></tr><tr><td><div>rent</div></td></tr></table></div></td></tr><tr><td style="font-weight:bold;vertical-align:top;">cid</td><td style="vertical-align:top;">:</td><td><div>None</div></td></tr><tr><td style="font-weight:bold;vertical-align:top;">client</td><td style="vertical-align:top;">:</td><td><div>127.0.0.1</div></td></tr><tr><td style="font-weight:bold;vertical-align:top;">controller</td><td style="vertical-align:top;">:</td><td><div>default</div></td></tr><tr><td style="font-weight:bold;vertical-align:top;">cookies</td><td style="vertical-align:top;">:</td><td><div><table><tr><td style="font-weight:bold;vertical-align:top;">adminLanguage</td><td style="vertical-align:top;">:</td><td><div>my-mm<table><tr><td style="font-weight:bold;vertical-align:top;">comment</td><td style="vertical-align:top;">:</td><td><div></div></td></tr><tr><td style="font-weight:bold;vertical-align:top;">domain</td><td style="vertical-align:top;">:</td><td><div></div></td></tr><tr><td style="font-weight:bold;vertical-align:top;">expires</td><td style="vertical-align:top;">:</td><td><div></div></td></tr><tr><td style="font-weight:bold;vertical-align:top;">httponly</td><td style="vertical-align:top;">:</td><td><div></div></td></tr><tr><td style="font-weight:bold;vertical-align:top;">max-age</td><td style="vertical-align:top;">:</td><td><div></div></td></tr><tr><td style="font-weight:bold;vertical-align:top;">path</td><td style="vertical-align:top;">:</td><td><div></div></td></tr><tr><td style="font-weight:bold;vertical-align:top;">secure</td><td style="vertical-align:top;">:</td><td><div></div></td></tr><tr><td style="font-weight:bold;vertical-align:top;">version</td><td style="vertical-align:top;">:</td><td><div></div></td></tr></table></div></td></tr><tr><td style="font-weight:bold;vertical-align:top;">session_id_admin</td><td style="vertical-align:top;">:</td><td><div>127.0.0.1-38e9d62a-4595-4c1e-ac56-f0c71dd08b56<table><tr><td style="font-weight:bold;vertical-align:top;">comment</td><td style="vertical-align:top;">:</td><td><div></div></td></tr><tr><td style="font-weight:bold;vertical-align:top;">domain</td><td style="vertical-align:top;">:</td><td><div></div></td></tr><tr><td style="font-weight:bold;vertical-align:top;">expires</td><td style="vertical-align:top;">:</td><td><div></div></td></tr><tr><td style="font-weight:bold;vertical-align:top;">httponly</td><td style="vertical-align:top;">:</td><td><div></div></td></tr><tr><td style="font-weight:bold;vertical-align:top;">max-age</td><td style="vertical-align:top;">:</td><td><div></div></td></tr><tr><td style="font-weight:bold;vertical-align:top;">path</td><td style="vertical-align:top;">:</td><td><div></div></td></tr><tr><td style="font-weight:bold;vertical-align:top;">secure</td><td style="vertical-align:top;">:</td><td><div></div></td></tr><tr><td style="font-weight:bold;vertical-align:top;">version</td><td style="vertical-align:top;">:</td><td><div></div></td></tr></table></div></td></tr><tr><td style="font-weight:bold;vertical-align:top;">session_id_monitor</td><td style="vertical-align:top;">:</td><td><div>127.0.0.1-9580b262-3717-4b53-a7f3-c3dcdeba75dc<table><tr><td style="font-weight:bold;vertical-align:top;">comment</td><td style="vertical-align:top;">:</td><td><div></div></td></tr><tr><td style="font-weight:bold;vertical-align:top;">domain</td><td style="vertical-align:top;">:</td><td><div></div></td></tr><tr><td style="font-weight:bold;vertical-align:top;">expires</td><td style="vertical-align:top;">:</td><td><div></div></td></tr><tr><td style="font-weight:bold;vertical-align:top;">httponly</td><td style="vertical-align:top;">:</td><td><div></div></td></tr><tr><td style="font-weight:bold;vertical-align:top;">max-age</td><td style="vertical-align:top;">:</td><td><div></div></td></tr><tr><td style="font-weight:bold;vertical-align:top;">path</td><td style="vertical-align:top;">:</td><td><div></div></td></tr><tr><td style="font-weight:bold;vertical-align:top;">secure</td><td style="vertical-align:top;">:</td><td><div></div></td></tr><tr><td style="font-weight:bold;vertical-align:top;">version</td><td style="vertical-align:top;">:</td><td><div></div></td></tr></table></div></td></tr><tr><td style="font-weight:bold;vertical-align:top;">session_id_mrnyein</td><td style="vertical-align:top;">:</td><td><div>127.0.0.1-0148fe35-1145-4bd9-ac1c-5c3e44614d8a<table><tr><td style="font-weight:bold;vertical-align:top;">comment</td><td style="vertical-align:top;">:</td><td><div></div></td></tr><tr><td style="font-weight:bold;vertical-align:top;">domain</td><td style="vertical-align:top;">:</td><td><div></div></td></tr><tr><td style="font-weight:bold;vertical-align:top;">expires</td><td style="vertical-align:top;">:</td><td><div></div></td></tr><tr><td style="font-weight:bold;vertical-align:top;">httponly</td><td style="vertical-align:top;">:</td><td><div></div></td></tr><tr><td style="font-weight:bold;vertical-align:top;">max-age</td><td style="vertical-align:top;">:</td><td><div></div></td></tr><tr><td style="font-weight:bold;vertical-align:top;">path</td><td style="vertical-align:top;">:</td><td><div></div></td></tr><tr><td style="font-weight:bold;vertical-align:top;">secure</td><td style="vertical-align:top;">:</td><td><div></div></td></tr><tr><td style="font-weight:bold;vertical-align:top;">version</td><td style="vertical-align:top;">:</td><td><div></div></td></tr></table></div></td></tr></table></div></td></tr><tr><td style="font-weight:bold;vertical-align:top;">env</td><td style="vertical-align:top;">:</td><td><div><table><tr><td style="font-weight:bold;vertical-align:top;">HTTP_ACCEPT</td><td style="vertical-align:top;">:</td><td><div>text/html,application/xhtml+xml,application/xml;q=0.9,image/webp,*/*;q=0.8</div></td></tr><tr><td style="font-weight:bold;vertical-align:top;">HTTP_ACCEPT_ENCODING</td><td style="vertical-align:top;">:</td><td><div>gzip, deflate, sdch</div></td></tr><tr><td style="font-weight:bold;vertical-align:top;">HTTP_ACCEPT_LANGUAGE</td><td style="vertical-align:top;">:</td><td><div>en-US,en;q=0.8</div></td></tr><tr><td style="font-weight:bold;vertical-align:top;">HTTP_CACHE_CONTROL</td><td style="vertical-align:top;">:</td><td><div>max-age=0</div></td></tr><tr><td style="font-weight:bold;vertical-align:top;">HTTP_CONNECTION</td><td style="vertical-align:top;">:</td><td><div>keep-alive</div></td></tr><tr><td style="font-weight:bold;vertical-align:top;">HTTP_COOKIE</td><td style="vertical-align:top;">:</td><td><div>adminLanguage=my-mm; session_id_mrnyein=127.0.0.1-0148fe35-1145-4bd9-ac1c-5c3e44614d8a; session_id_monitor=127.0.0.1-9580b262-3717-4b53-a7f3-c3dcdeba75dc; session_id_admin=127.0.0.1-38e9d62a-4595-4c1e-ac56-f0c71dd08b56</div></td></tr><tr><td style="font-weight:bold;vertical-align:top;">HTTP_HOST</td><td style="vertical-align:top;">:</td><td><div>localhost:8000</div></td></tr><tr><td style="font-weight:bold;vertical-align:top;">HTTP_REFERER</td><td style="vertical-align:top;">:</td><td><div>http://localhost:8000/rent/rent?_signature=8c4abc505f956204c69c697f684abae1d1ebf64b</div></td></tr><tr><td style="font-weight:bold;vertical-align:top;">HTTP_UPGRADE_INSECURE_REQUESTS</td><td style="vertical-align:top;">:</td><td><div>1</div></td></tr><tr><td style="font-weight:bold;vertical-align:top;">HTTP_USER_AGENT</td><td style="vertical-align:top;">:</td><td><div>Mozilla/5.0 (X11; Linux x86_64) AppleWebKit/537.36 (KHTML, like Gecko) Chrome/53.0.2785.143 Safari/537.36</div></td></tr><tr><td style="font-weight:bold;vertical-align:top;">PATH_INFO</td><td style="vertical-align:top;">:</td><td><div>/rent/rent/new/rent</div></td></tr><tr><td style="font-weight:bold;vertical-align:top;">QUERY_STRING</td><td style="vertical-align:top;">:</td><td><div>_signature=e00238f27f3658434aa14cbd17bf2c994694a859</div></td></tr><tr><td style="font-weight:bold;vertical-align:top;">REMOTE_ADDR</td><td style="vertical-align:top;">:</td><td><div>127.0.0.1</div></td></tr><tr><td style="font-weight:bold;vertical-align:top;">REMOTE_PORT</td><td style="vertical-align:top;">:</td><td><div>43322</div></td></tr><tr><td style="font-weight:bold;vertical-align:top;">REQUEST_METHOD</td><td style="vertical-align:top;">:</td><td><div>GET</div></td></tr><tr><td style="font-weight:bold;vertical-align:top;">SCRIPT_NAME</td><td style="vertical-align:top;">:</td><td><div></div></td></tr><tr><td style="font-weight:bold;vertical-align:top;">SERVER_NAME</td><td style="vertical-align:top;">:</td><td><div>HTY-L-PC09DD2CU</div></td></tr><tr><td style="font-weight:bold;vertical-align:top;">SERVER_PORT</td><td style="vertical-align:top;">:</td><td><div>8000</div></td></tr><tr><td style="font-weight:bold;vertical-align:top;">SERVER_PROTOCOL</td><td style="vertical-align:top;">:</td><td><div>HTTP/1.1</div></td></tr><tr><td style="font-weight:bold;vertical-align:top;">SERVER_SOFTWARE</td><td style="vertical-align:top;">:</td><td><div>Rocket 1.2.6</div></td></tr><tr><td style="font-weight:bold;vertical-align:top;">app_folders</td><td style="vertical-align:top;">:</td><td><div>set([&#x27;/home/nyeinchan/web2py/applications/monitor/&#x27;, &#x27;/home/nyeinchan/web2py/applications/admin/&#x27;, &#x27;/home/nyeinchan/web2py/applications/mrnyein/&#x27;])</div></td></tr><tr><td style="font-weight:bold;vertical-align:top;">applications_parent</td><td style="vertical-align:top;">:</td><td><div>/home/nyeinchan/web2py</div></td></tr><tr><td style="font-weight:bold;vertical-align:top;">cmd_args</td><td style="vertical-align:top;">:</td><td><div><table></table></div></td></tr><tr><td style="font-weight:bold;vertical-align:top;">cmd_options</td><td style="vertical-align:top;">:</td><td><div>&lt;Values at 0x7f4bf977b830: {&#x27;verbose&#x27;: False, &#x27;ip&#x27;: &#x27;127.0.0.1&#x27;, &#x27;debuglevel&#x27;: 30, &#x27;with_scheduler&#x27;: False, &#x27;shutdown_timeout&#x27;: 5, &#x27;taskbar&#x27;: False, &#x27;with_coverage&#x27;: False, &#x27;pid_filename&#x27;: &#x27;httpserver.pid&#x27;, &#x27;maxthreads&#x27;: None, &#x27;softcron&#x27;: False, &#x27;server_name&#x27;: &#x27;HTY-L-PC09DD2CU&#x27;, &#x27;bpython&#x27;: False, &#x27;nogui&#x27;: False, &#x27;port&#x27;: 8000, &#x27;print_errors&#x27;: False, &#x27;extcron&#x27;: False, &#x27;runcron&#x27;: False, &#x27;run_system_tests&#x27;: False, &#x27;test&#x27;: None, &#x27;folder&#x27;: &#x27;/home/nyeinchan/web2py&#x27;, &#x27;config&#x27;: &#x27;&#x27;, &#x27;minthreads&#x27;: None, &#x27;shell&#x27;: None, &#x27;run&#x27;: &#x27;&#x27;, &#x27;log_filename&#x27;: &#x27;httpserver.log&#x27;, &#x27;profiler_dir&#x27;: None, &#x27;args&#x27;: [&#x27;&#x27;], &#x27;socket_timeout&#x27;: 5, &#x27;ssl_ca_certificate&#x27;: None, &#x27;scheduler&#x27;: None, &#x27;interfaces&#x27;: None, &#x27;ssl_private_key&#x27;: &#x27;&#x27;, &#x27;gae&#x27;: None, &#x27;password&#x27;: &#x27;******&#x27;, &#x27;request_queue_size&#x27;: 5, &#x27;ssl_certificate&#x27;: &#x27;&#x27;, &#x27;cronjob&#x27;: False, &#x27;numthreads&#x27;: None, &#x27;quiet&#x27;: False, &#x27;import_models&#x27;: False, &#x27;timeout&#x27;: 10, &#x27;plain&#x27;: False, &#x27;nobanner&#x27;: False}&gt;</div></td></tr><tr><td style="font-weight:bold;vertical-align:top;">db_sessions</td><td style="vertical-align:top;">:</td><td><div>set([])</div></td></tr><tr><td style="font-weight:bold;vertical-align:top;">debugging</td><td style="vertical-align:top;">:</td><td><div>False</div></td></tr><tr><td style="font-weight:bold;vertical-align:top;">gluon_parent</td><td style="vertical-align:top;">:</td><td><div>/home/nyeinchan/web2py</div></td></tr><tr><td style="font-weight:bold;vertical-align:top;">http_accept</td><td style="vertical-align:top;">:</td><td><div>text/html,application/xhtml+xml,application/xml;q=0.9,image/webp,*/*;q=0.8</div></td></tr><tr><td style="font-weight:bold;vertical-align:top;">http_accept_encoding</td><td style="vertical-align:top;">:</td><td><div>gzip, deflate, sdch</div></td></tr><tr><td style="font-weight:bold;vertical-align:top;">http_accept_language</td><td style="vertical-align:top;">:</td><td><div>en-US,en;q=0.8</div></td></tr><tr><td style="font-weight:bold;vertical-align:top;">http_cache_control</td><td style="vertical-align:top;">:</td><td><div>max-age=0</div></td></tr><tr><td style="font-weight:bold;vertical-align:top;">http_connection</td><td style="vertical-align:top;">:</td><td><div>keep-alive</div></td></tr><tr><td style="font-weight:bold;vertical-align:top;">http_cookie</td><td style="vertical-align:top;">:</td><td><div>adminLanguage=my-mm; session_id_mrnyein=127.0.0.1-0148fe35-1145-4bd9-ac1c-5c3e44614d8a; session_id_monitor=127.0.0.1-9580b262-3717-4b53-a7f3-c3dcdeba75dc; session_id_admin=127.0.0.1-38e9d62a-4595-4c1e-ac56-f0c71dd08b56</div></td></tr><tr><td style="font-weight:bold;vertical-align:top;">http_host</td><td style="vertical-align:top;">:</td><td><div>localhost:8000</div></td></tr><tr><td style="font-weight:bold;vertical-align:top;">http_referer</td><td style="vertical-align:top;">:</td><td><div>http://localhost:8000/rent/rent?_signature=8c4abc505f956204c69c697f684abae1d1ebf64b</div></td></tr><tr><td style="font-weight:bold;vertical-align:top;">http_upgrade_insecure_requests</td><td style="vertical-align:top;">:</td><td><div>1</div></td></tr><tr><td style="font-weight:bold;vertical-align:top;">http_user_agent</td><td style="vertical-align:top;">:</td><td><div>Mozilla/5.0 (X11; Linux x86_64) AppleWebKit/537.36 (KHTML, like Gecko) Chrome/53.0.2785.143 Safari/537.36</div></td></tr><tr><td style="font-weight:bold;vertical-align:top;">is_jython</td><td style="vertical-align:top;">:</td><td><div>False</div></td></tr><tr><td style="font-weight:bold;vertical-align:top;">is_pypy</td><td style="vertical-align:top;">:</td><td><div>False</div></td></tr><tr><td style="font-weight:bold;vertical-align:top;">is_source</td><td style="vertical-align:top;">:</td><td><div>True</div></td></tr><tr><td style="font-weight:bold;vertical-align:top;">local_hosts</td><td style="vertical-align:top;">:</td><td><div><table><tr><td><div>HTY-L-PC09DD2CU</div></td></tr><tr><td><div>::1</div></td></tr><tr><td><div>127.0.1.1</div></td></tr><tr><td><div>::ffff:127.0.0.1</div></td></tr><tr><td><div>127.0.0.1</div></td></tr></table></div></td></tr><tr><td style="font-weight:bold;vertical-align:top;">path_info</td><td style="vertical-align:top;">:</td><td><div>/rent/rent/new/rent</div></td></tr><tr><td style="font-weight:bold;vertical-align:top;">query_string</td><td style="vertical-align:top;">:</td><td><div>_signature=e00238f27f3658434aa14cbd17bf2c994694a859</div></td></tr><tr><td style="font-weight:bold;vertical-align:top;">remote_addr</td><td style="vertical-align:top;">:</td><td><div>127.0.0.1</div></td></tr><tr><td style="font-weight:bold;vertical-align:top;">remote_port</td><td style="vertical-align:top;">:</td><td><div>43322</div></td></tr><tr><td style="font-weight:bold;vertical-align:top;">request_method</td><td style="vertical-align:top;">:</td><td><div>GET</div></td></tr><tr><td style="font-weight:bold;vertical-align:top;">request_uri</td><td style="vertical-align:top;">:</td><td><div>/monitor/en-us/default/rent/rent/new/rent?_signature=e00238f27f3658434aa14cbd17bf2c994694a859</div></td></tr><tr><td style="font-weight:bold;vertical-align:top;">script_name</td><td style="vertical-align:top;">:</td><td><div></div></td></tr><tr><td style="font-weight:bold;vertical-align:top;">server_name</td><td style="vertical-align:top;">:</td><td><div>HTY-L-PC09DD2CU</div></td></tr><tr><td style="font-weight:bold;vertical-align:top;">server_port</td><td style="vertical-align:top;">:</td><td><div>8000</div></td></tr><tr><td style="font-weight:bold;vertical-align:top;">server_protocol</td><td style="vertical-align:top;">:</td><td><div>HTTP/1.1</div></td></tr><tr><td style="font-weight:bold;vertical-align:top;">server_software</td><td style="vertical-align:top;">:</td><td><div>Rocket 1.2.6</div></td></tr><tr><td style="font-weight:bold;vertical-align:top;">web2py_original_uri</td><td style="vertical-align:top;">:</td><td><div>/rent/rent/new/rent?_signature=e00238f27f3658434aa14cbd17bf2c994694a859</div></td></tr><tr><td style="font-weight:bold;vertical-align:top;">web2py_path</td><td style="vertical-align:top;">:</td><td><div>/home/nyeinchan/web2py</div></td></tr><tr><td style="font-weight:bold;vertical-align:top;">web2py_version</td><td style="vertical-align:top;">:</td><td><div>2.14.6-stable+timestamp.2016.05.10.00.21.47</div></td></tr><tr><td style="font-weight:bold;vertical-align:top;">wsgi.errors</td><td style="vertical-align:top;">:</td><td><div>&lt;open file &#x27;&lt;stderr&gt;&#x27;, mode &#x27;w&#x27; at 0x7f4bff1f81e0&gt;</div></td></tr><tr><td style="font-weight:bold;vertical-align:top;">wsgi.file_wrapper</td><td style="vertical-align:top;">:</td><td><div>&lt;class wsgiref.util.FileWrapper at 0x7f4bf95f56d0&gt;</div></td></tr><tr><td style="font-weight:bold;vertical-align:top;">wsgi.input</td><td style="vertical-align:top;">:</td><td><div>&lt;socket._fileobject object at 0x7f4bce6b4050&gt;</div></td></tr><tr><td style="font-weight:bold;vertical-align:top;">wsgi.multiprocess</td><td style="vertical-align:top;">:</td><td><div>False</div></td></tr><tr><td style="font-weight:bold;vertical-align:top;">wsgi.multithread</td><td style="vertical-align:top;">:</td><td><div>True</div></td></tr><tr><td style="font-weight:bold;vertical-align:top;">wsgi.run_once</td><td style="vertical-align:top;">:</td><td><div>False</div></td></tr><tr><td style="font-weight:bold;vertical-align:top;">wsgi.url_scheme</td><td style="vertical-align:top;">:</td><td><div>http</div></td></tr><tr><td style="font-weight:bold;vertical-align:top;">wsgi.version</td><td style="vertical-align:top;">:</td><td><div><table><tr><td><div>1</div></td></tr><tr><td><div>0</div></td></tr></table></div></td></tr><tr><td style="font-weight:bold;vertical-align:top;">wsgi_errors</td><td style="vertical-align:top;">:</td><td><div>&lt;open file &#x27;&lt;stderr&gt;&#x27;, mode &#x27;w&#x27; at 0x7f4bff1f81e0&gt;</div></td></tr><tr><td style="font-weight:bold;vertical-align:top;">wsgi_file_wrapper</td><td style="vertical-align:top;">:</td><td><div>&lt;class wsgiref.util.FileWrapper at 0x7f4bf95f56d0&gt;</div></td></tr><tr><td style="font-weight:bold;vertical-align:top;">wsgi_input</td><td style="vertical-align:top;">:</td><td><div>&lt;socket._fileobject object at 0x7f4bce6b4050&gt;</div></td></tr><tr><td style="font-weight:bold;vertical-align:top;">wsgi_multiprocess</td><td style="vertical-align:top;">:</td><td><div>False</div></td></tr><tr><td style="font-weight:bold;vertical-align:top;">wsgi_multithread</td><td style="vertical-align:top;">:</td><td><div>True</div></td></tr><tr><td style="font-weight:bold;vertical-align:top;">wsgi_run_once</td><td style="vertical-align:top;">:</td><td><div>False</div></td></tr><tr><td style="font-weight:bold;vertical-align:top;">wsgi_url_scheme</td><td style="vertical-align:top;">:</td><td><div>http</div></td></tr><tr><td style="font-weight:bold;vertical-align:top;">wsgi_version</td><td style="vertical-align:top;">:</td><td><div><table><tr><td><div>1</div></td></tr><tr><td><div>0</div></td></tr></table></div></td></tr></table></div></td></tr><tr><td style="font-weight:bold;vertical-align:top;">extension</td><td style="vertical-align:top;">:</td><td><div>html</div></td></tr><tr><td style="font-weight:bold;vertical-align:top;">folder</td><td style="vertical-align:top;">:</td><td><div>/home/nyeinchan/web2py/applications/monitor/</div></td></tr><tr><td style="font-weight:bold;vertical-align:top;">function</td><td style="vertical-align:top;">:</td><td><div>rent</div></td></tr><tr><td style="font-weight:bold;vertical-align:top;">global_settings</td><td style="vertical-align:top;">:</td><td><div><table><tr><td style="font-weight:bold;vertical-align:top;">app_folders</td><td style="vertical-align:top;">:</td><td><div>set([&#x27;/home/nyeinchan/web2py/applications/monitor/&#x27;, &#x27;/home/nyeinchan/web2py/applications/admin/&#x27;, &#x27;/home/nyeinchan/web2py/applications/mrnyein/&#x27;])</div></td></tr><tr><td style="font-weight:bold;vertical-align:top;">applications_parent</td><td style="vertical-align:top;">:</td><td><div>/home/nyeinchan/web2py</div></td></tr><tr><td style="font-weight:bold;vertical-align:top;">cmd_args</td><td style="vertical-align:top;">:</td><td><div><table></table></div></td></tr><tr><td style="font-weight:bold;vertical-align:top;">cmd_options</td><td style="vertical-align:top;">:</td><td><div>&lt;Values at 0x7f4bf977b830: {&#x27;verbose&#x27;: False, &#x27;ip&#x27;: &#x27;127.0.0.1&#x27;, &#x27;debuglevel&#x27;: 30, &#x27;with_scheduler&#x27;: False, &#x27;shutdown_timeout&#x27;: 5, &#x27;taskbar&#x27;: False, &#x27;with_coverage&#x27;: False, &#x27;pid_filename&#x27;: &#x27;httpserver.pid&#x27;, &#x27;maxthreads&#x27;: None, &#x27;softcron&#x27;: False, &#x27;server_name&#x27;: &#x27;HTY-L-PC09DD2CU&#x27;, &#x27;bpython&#x27;: False, &#x27;nogui&#x27;: False, &#x27;port&#x27;: 8000, &#x27;print_errors&#x27;: False, &#x27;extcron&#x27;: False, &#x27;runcron&#x27;: False, &#x27;run_system_tests&#x27;: False, &#x27;test&#x27;: None, &#x27;folder&#x27;: &#x27;/home/nyeinchan/web2py&#x27;, &#x27;config&#x27;: &#x27;&#x27;, &#x27;minthreads&#x27;: None, &#x27;shell&#x27;: None, &#x27;run&#x27;: &#x27;&#x27;, &#x27;log_filename&#x27;: &#x27;httpserver.log&#x27;, &#x27;profiler_dir&#x27;: None, &#x27;args&#x27;: [&#x27;&#x27;], &#x27;socket_timeout&#x27;: 5, &#x27;ssl_ca_certificate&#x27;: None, &#x27;scheduler&#x27;: None, &#x27;interfaces&#x27;: None, &#x27;ssl_private_key&#x27;: &#x27;&#x27;, &#x27;gae&#x27;: None, &#x27;password&#x27;: &#x27;******&#x27;, &#x27;request_queue_size&#x27;: 5, &#x27;ssl_certificate&#x27;: &#x27;&#x27;, &#x27;cronjob&#x27;: False, &#x27;numthreads&#x27;: None, &#x27;quiet&#x27;: False, &#x27;import_models&#x27;: False, &#x27;timeout&#x27;: 10, &#x27;plain&#x27;: False, &#x27;nobanner&#x27;: False}&gt;</div></td></tr><tr><td style="font-weight:bold;vertical-align:top;">db_sessions</td><td style="vertical-align:top;">:</td><td><div>set([])</div></td></tr><tr><td style="font-weight:bold;vertical-align:top;">debugging</td><td style="vertical-align:top;">:</td><td><div>False</div></td></tr><tr><td style="font-weight:bold;vertical-align:top;">gluon_parent</td><td style="vertical-align:top;">:</td><td><div>/home/nyeinchan/web2py</div></td></tr><tr><td style="font-weight:bold;vertical-align:top;">is_jython</td><td style="vertical-align:top;">:</td><td><div>False</div></td></tr><tr><td style="font-weight:bold;vertical-align:top;">is_pypy</td><td style="vertical-align:top;">:</td><td><div>False</div></td></tr><tr><td style="font-weight:bold;vertical-align:top;">is_source</td><td style="vertical-align:top;">:</td><td><div>True</div></td></tr><tr><td style="font-weight:bold;vertical-align:top;">local_hosts</td><td style="vertical-align:top;">:</td><td><div><table><tr><td><div>HTY-L-PC09DD2CU</div></td></tr><tr><td><div>::1</div></td></tr><tr><td><div>127.0.1.1</div></td></tr><tr><td><div>::ffff:127.0.0.1</div></td></tr><tr><td><div>127.0.0.1</div></td></tr></table></div></td></tr><tr><td style="font-weight:bold;vertical-align:top;">web2py_version</td><td style="vertical-align:top;">:</td><td><div>2.14.6-stable+timestamp.2016.05.10.00.21.47</div></td></tr></table></div></td></tr><tr><td style="font-weight:bold;vertical-align:top;">is_https</td><td style="vertical-align:top;">:</td><td><div>False</div></td></tr><tr><td style="font-weight:bold;vertical-align:top;">is_local</td><td style="vertical-align:top;">:</td><td><div>True</div></td></tr><tr><td style="font-weight:bold;vertical-align:top;">is_restful</td><td style="vertical-align:top;">:</td><td><div>False</div></td></tr><tr><td style="font-weight:bold;vertical-align:top;">is_scheduler</td><td style="vertical-align:top;">:</td><td><div>False</div></td></tr><tr><td style="font-weight:bold;vertical-align:top;">is_shell</td><td style="vertical-align:top;">:</td><td><div>False</div></td></tr><tr><td style="font-weight:bold;vertical-align:top;">now</td><td style="vertical-align:top;">:</td><td><div>datetime.datetime(2016, 10, 2, 5, 34, 20, 109928)</div></td></tr><tr><td style="font-weight:bold;vertical-align:top;">uri_language</td><td style="vertical-align:top;">:</td><td><div>en-us</div></td></tr><tr><td style="font-weight:bold;vertical-align:top;">url</td><td style="vertical-align:top;">:</td><td><div>/rent/rent/new/rent</div></td></tr><tr><td style="font-weight:bold;vertical-align:top;">utcnow</td><td style="vertical-align:top;">:</td><td><div>datetime.datetime(2016, 10, 1, 23, 4, 20, 109941)</div></td></tr><tr><td style="font-weight:bold;vertical-align:top;">wsgi</td><td style="vertical-align:top;">:</td><td><div>&lt;gluon.main.LazyWSGI object at 0x7f4bf06643d0&gt;</div></td></tr></table></div>'
tRp58
sS'frames'
p59
(lp60
(dp61
S'file'
p62
S'/home/nyeinchan/web2py/gluon/restricted.py'
p63
sS'dump'
p64
(dp65
S'environment'
p66
S"{'A': <class 'gluon.html.A'>, 'ANY_OF': <class 'gluon.validators.ANY_OF'>, 'ASSIGNJS': <function ASSIGNJS>, 'AppConfig': <function AppConfig>, 'Auth': <class 'gluon.tools.Auth'>, 'B': <class 'gluon.html.B'>, 'BEAUTIFY': <class 'gluon.html.BEAUTIFY'>, 'BODY': <class 'gluon.html.BODY'>, 'BR': <class 'gluon.html.BR'>, 'BUTTON': <class 'gluon.html.BUTTON'>, ...}"
p67
sS'ccode'
p68
S'<code object <module> at 0x7f4bf074a730, file "/.../applications/monitor/models/dbsetup.py", line 1>'
p69
ssS'lnum'
p70
I227
sS'lines'
p71
(dp72
I224
S'            ccode = code'
p73
sI225
S'        else:'
p74
sI226
S'            ccode = compile2(code, layer)'
p75
sI227
S'        exec ccode in environment'
p76
sI228
S'    except HTTP:'
p77
sI229
S'        raise'
p78
sI230
S'    except RestrictedError:'
p79
sI231
S'        # do not encapsulate (obfuscate) the original RestrictedError'
p80
sI222
S'    try:'
p81
sI223
S'        if isinstance(code, types.CodeType):'
p82
ssS'call'
p83
S'(code="from datetime import datetime\\nfrom gluon.contrib...\\n\\t\\tdict(name=myconf.get(\'default_type.usr\'))\\n\\t])\\n", environment={\'A\': <class \'gluon.html.A\'>, \'ANY_OF\': <class \'gluon.validators.ANY_OF\'>, \'ASSIGNJS\': <function ASSIGNJS>, \'AppConfig\': <function AppConfig>, \'Auth\': <class \'gluon.tools.Auth\'>, \'B\': <class \'gluon.html.B\'>, \'BEAUTIFY\': <class \'gluon.html.BEAUTIFY\'>, \'BODY\': <class \'gluon.html.BODY\'>, \'BR\': <class \'gluon.html.BR\'>, \'BUTTON\': <class \'gluon.html.BUTTON\'>, ...}, layer=\'/home/nyeinchan/web2py/applications/monitor/models/dbsetup.py\')'
p84
sS'func'
p85
S'restricted'
p86
sa(dp87
g62
S'/home/nyeinchan/web2py/applications/monitor/models/dbsetup.py'
p88
sg64
(dp89
S'Field'
p90
S"<class 'pydal.objects.Field'>"
p91
sS'builtinformat'
p92
S'<built-in function format>'
p93
sS'label'
p94
S'undefined'
p95
ssg70
I255
sg71
(dp96
I256
S"\tField('created_on', 'datetime', default=request.now,"
p97
sI257
S'\t\t\treadable=True, writable=False),'
p98
sI258
S"\tField('created_by', 'reference auth_user', default=auth.user_id,"
p99
sI259
S'\t\t\treadable=True, writable=False),'
p100
sI250
S'\tField(\'rent_date\', \'datetime\', requires=IS_NOT_EMPTY(),  default=request.now, label="Rent Date"),'
p101
sI251
S'\tField(\'device_id\', \'reference device\', requires=IS_NOT_EMPTY(), label="Device"),'
p102
sI252
S'\tField(\'serial_number\', \'string\', requires=IS_NOT_EMPTY(), label="S/N or Assets Number"),'
p103
sI253
S'\tField(\'rent_desc\', \'string\', label="Rent Description"),'
p104
sI254
S'\tField(\'is_received\', \'boolean\', default=False, label="Received"),'
p105
sI255
S'\tField(\'receive_date\', \'datetime\', format="%B %d, %Y", label="Receive Date"),'
p106
ssg83
S'()'
p107
sg85
S'<module>'
p108
sasS'pyver'
p109
S'Python 2.7.12: /usr/bin/python (prefix: /usr)'
p110
sS'session'
p111
g57
(S's\xed\x08\x00\x00<div><table><tr><td style="font-weight:bold;vertical-align:top;">auth</td><td style="vertical-align:top;">:</td><td><div><table><tr><td style="font-weight:bold;vertical-align:top;">expiration</td><td style="vertical-align:top;">:</td><td><div>3600</div></td></tr><tr><td style="font-weight:bold;vertical-align:top;">hmac_key</td><td style="vertical-align:top;">:</td><td><div>f5b907a4-aec1-4a39-9567-4c2efe24b7d4</div></td></tr><tr><td style="font-weight:bold;vertical-align:top;">last_visit</td><td style="vertical-align:top;">:</td><td><div>datetime.datetime(2016, 10, 2, 5, 33, 5, 286436)</div></td></tr><tr><td style="font-weight:bold;vertical-align:top;">remember_me</td><td style="vertical-align:top;">:</td><td><div>False</div></td></tr><tr><td style="font-weight:bold;vertical-align:top;">user</td><td style="vertical-align:top;">:</td><td><div><table><tr><td style="font-weight:bold;vertical-align:top;">email</td><td style="vertical-align:top;">:</td><td><div>nyeinchan@coca-cola.com.mm</div></td></tr><tr><td style="font-weight:bold;vertical-align:top;">first_name</td><td style="vertical-align:top;">:</td><td><div>Nyein</div></td></tr><tr><td style="font-weight:bold;vertical-align:top;">id</td><td style="vertical-align:top;">:</td><td><div>2L</div></td></tr><tr><td style="font-weight:bold;vertical-align:top;">last_name</td><td style="vertical-align:top;">:</td><td><div>Chan</div></td></tr><tr><td style="font-weight:bold;vertical-align:top;">registration_id</td><td style="vertical-align:top;">:</td><td><div></div></td></tr><tr><td style="font-weight:bold;vertical-align:top;">registration_key</td><td style="vertical-align:top;">:</td><td><div></div></td></tr><tr><td style="font-weight:bold;vertical-align:top;">reset_password_key</td><td style="vertical-align:top;">:</td><td><div></div></td></tr></table></div></td></tr><tr><td style="font-weight:bold;vertical-align:top;">user_groups</td><td style="vertical-align:top;">:</td><td><div><table><tr><td style="font-weight:bold;vertical-align:top;">1</td><td style="vertical-align:top;">:</td><td><div>Admin</div></td></tr></table></div></td></tr></table></div></td></tr><tr><td style="font-weight:bold;vertical-align:top;">flash</td><td style="vertical-align:top;">:</td><td><div>None</div></td></tr></table></div>'
tRp112
sS'etype'
p113
S"<type 'exceptions.TypeError'>"
p114
sS'date'
p115
S'Sun Oct  2 05:34:20 2016'
p116
sS'response'
p117
g57
(S'si\x17\x00\x00<div><table><tr><td style="font-weight:bold;vertical-align:top;">body</td><td style="vertical-align:top;">:</td><td><div>&lt;cStringIO.StringO object at 0x7f4bf068ab20&gt;</div></td></tr><tr><td style="font-weight:bold;vertical-align:top;">cookies</td><td style="vertical-align:top;">:</td><td><div><table><tr><td style="font-weight:bold;vertical-align:top;">session_id_monitor</td><td style="vertical-align:top;">:</td><td><div>127.0.0.1-9580b262-3717-4b53-a7f3-c3dcdeba75dc<table><tr><td style="font-weight:bold;vertical-align:top;">comment</td><td style="vertical-align:top;">:</td><td><div></div></td></tr><tr><td style="font-weight:bold;vertical-align:top;">domain</td><td style="vertical-align:top;">:</td><td><div></div></td></tr><tr><td style="font-weight:bold;vertical-align:top;">expires</td><td style="vertical-align:top;">:</td><td><div></div></td></tr><tr><td style="font-weight:bold;vertical-align:top;">httponly</td><td style="vertical-align:top;">:</td><td><div></div></td></tr><tr><td style="font-weight:bold;vertical-align:top;">max-age</td><td style="vertical-align:top;">:</td><td><div></div></td></tr><tr><td style="font-weight:bold;vertical-align:top;">path</td><td style="vertical-align:top;">:</td><td><div>/</div></td></tr><tr><td style="font-weight:bold;vertical-align:top;">secure</td><td style="vertical-align:top;">:</td><td><div></div></td></tr><tr><td style="font-weight:bold;vertical-align:top;">version</td><td style="vertical-align:top;">:</td><td><div></div></td></tr></table></div></td></tr></table></div></td></tr><tr><td style="font-weight:bold;vertical-align:top;">delimiters</td><td style="vertical-align:top;">:</td><td><div><table><tr><td><div>{{</div></td></tr><tr><td><div>}}</div></td></tr></table></div></td></tr><tr><td style="font-weight:bold;vertical-align:top;">files</td><td style="vertical-align:top;">:</td><td><div><table></table></div></td></tr><tr><td style="font-weight:bold;vertical-align:top;">flash</td><td style="vertical-align:top;">:</td><td><div></div></td></tr><tr><td style="font-weight:bold;vertical-align:top;">form_label_separator</td><td style="vertical-align:top;">:</td><td><div></div></td></tr><tr><td style="font-weight:bold;vertical-align:top;">formstyle</td><td style="vertical-align:top;">:</td><td><div>bootstrap3_stacked</div></td></tr><tr><td style="font-weight:bold;vertical-align:top;">generic_patterns</td><td style="vertical-align:top;">:</td><td><div><table><tr><td><div>*</div></td></tr></table></div></td></tr><tr><td style="font-weight:bold;vertical-align:top;">headers</td><td style="vertical-align:top;">:</td><td><div><table><tr><td style="font-weight:bold;vertical-align:top;">X-Powered-By</td><td style="vertical-align:top;">:</td><td><div>web2py</div></td></tr></table></div></td></tr><tr><td style="font-weight:bold;vertical-align:top;">menu</td><td style="vertical-align:top;">:</td><td><div><table></table></div></td></tr><tr><td style="font-weight:bold;vertical-align:top;">meta</td><td style="vertical-align:top;">:</td><td><div><table></table></div></td></tr><tr><td style="font-weight:bold;vertical-align:top;">models_to_run</td><td style="vertical-align:top;">:</td><td><div><table><tr><td><div>^\\w+\\.py$</div></td></tr><tr><td><div>^default/\\w+\\.py$</div></td></tr><tr><td><div>^default/rent/\\w+\\.py$</div></td></tr></table></div></td></tr><tr><td style="font-weight:bold;vertical-align:top;">postprocessing</td><td style="vertical-align:top;">:</td><td><div><table></table></div></td></tr><tr><td style="font-weight:bold;vertical-align:top;">session_client</td><td style="vertical-align:top;">:</td><td><div>127.0.0.1</div></td></tr><tr><td style="font-weight:bold;vertical-align:top;">session_cookie_compression_level</td><td style="vertical-align:top;">:</td><td><div>None</div></td></tr><tr><td style="font-weight:bold;vertical-align:top;">session_cookie_expires</td><td style="vertical-align:top;">:</td><td><div>None</div></td></tr><tr><td style="font-weight:bold;vertical-align:top;">session_data_name</td><td style="vertical-align:top;">:</td><td><div>session_data_monitor</div></td></tr><tr><td style="font-weight:bold;vertical-align:top;">session_file</td><td style="vertical-align:top;">:</td><td><div>&lt;open file &#x27;/home/nyeinchan/web2py/applications/monitor/sessions/19c/1f5/127.0.0.1-9580b262-3717-4b53-a7f3-c3dcdeba75dc&#x27;, mode &#x27;rb+&#x27; at 0x7f4bf06de6f0&gt;</div></td></tr><tr><td style="font-weight:bold;vertical-align:top;">session_filename</td><td style="vertical-align:top;">:</td><td><div>/home/nyeinchan/web2py/applications/monitor/sessions/127.0.0.1-9580b262-3717-4b53-a7f3-c3dcdeba75dc</div></td></tr><tr><td style="font-weight:bold;vertical-align:top;">session_hash</td><td style="vertical-align:top;">:</td><td><div>8aa72f23efe53454e82da93994222d29</div></td></tr><tr><td style="font-weight:bold;vertical-align:top;">session_id</td><td style="vertical-align:top;">:</td><td><div>127.0.0.1-9580b262-3717-4b53-a7f3-c3dcdeba75dc</div></td></tr><tr><td style="font-weight:bold;vertical-align:top;">session_id_name</td><td style="vertical-align:top;">:</td><td><div>session_id_monitor</div></td></tr><tr><td style="font-weight:bold;vertical-align:top;">session_locked</td><td style="vertical-align:top;">:</td><td><div>True</div></td></tr><tr><td style="font-weight:bold;vertical-align:top;">session_masterapp</td><td style="vertical-align:top;">:</td><td><div>monitor</div></td></tr><tr><td style="font-weight:bold;vertical-align:top;">session_new</td><td style="vertical-align:top;">:</td><td><div>False</div></td></tr><tr><td style="font-weight:bold;vertical-align:top;">session_storage_type</td><td style="vertical-align:top;">:</td><td><div>file</div></td></tr><tr><td style="font-weight:bold;vertical-align:top;">status</td><td style="vertical-align:top;">:</td><td><div>200</div></td></tr><tr><td style="font-weight:bold;vertical-align:top;">view</td><td style="vertical-align:top;">:</td><td><div>default/rent.html</div></td></tr></table></div>'
tRp118
sS'locals'
p119
(dp120
S'Service'
p121
S"<class 'gluon.tools.Service'>"
p122
sS'OBJECT'
p123
S"<class 'gluon.html.OBJECT'>"
p124
sS'SQLDB'
p125
S"<class 'pydal.base.DAL'>"
p126
sg111
S"<Storage {'auth': <Storage {'remember_me': False...ature=8c4abc505f956204c69c697f684abae1d1ebf64b'}>"
p127
sS'LINK'
p128
S"<class 'gluon.html.LINK'>"
p129
sS'BR'
p130
S"<class 'gluon.html.BR'>"
p131
sS'local_import'
p132
S'<function <lambda>>'
p133
sS'OPTGROUP'
p134
S"<class 'gluon.html.OPTGROUP'>"
p135
sS'LI'
p136
S"<class 'gluon.html.LI'>"
p137
sS'PRE'
p138
S"<class 'gluon.html.PRE'>"
p139
sS'IS_INT_IN_RANGE'
p140
S"<class 'gluon.validators.IS_INT_IN_RANGE'>"
p141
sS'IS_LOWER'
p142
S"<class 'gluon.validators.IS_LOWER'>"
p143
sS'IS_STRONG'
p144
S"<class 'gluon.validators.IS_STRONG'>"
p145
sS'cache'
p146
S'<gluon.cache.Cache object>'
p147
sS'IS_IN_DB'
p148
S"<class 'gluon.validators.IS_IN_DB'>"
p149
sS'TAG'
p150
S'<gluon.html.__TAG__ object>'
p151
sS'SQLField'
p152
S"<class 'pydal.objects.Field'>"
p153
sS'mail'
p154
S'<gluon.tools.Mail object>'
p155
sS'department_id'
p156
S"<Row {'general_table': <Set (general_table.config_type = 7)>, 'id': 7L}>"
p157
sS'BODY'
p158
S"<class 'gluon.html.BODY'>"
p159
sS'IS_DATE_IN_RANGE'
p160
S"<class 'gluon.validators.IS_DATE_IN_RANGE'>"
p161
sS'operator_id'
p162
S"<Row {'general_table': <Set (general_table.config_type = 5)>, 'id': 5L}>"
p163
sS'TH'
p164
S"<class 'gluon.html.TH'>"
p165
sS'URL'
p166
S'<function URL>'
p167
sS'__file__'
p168
S"'/home/nyeinchan/web2py/applications/monitor/models/dbsetup.py'"
p169
sS'db'
p170
S'<DAL uri="mysql:******@localhost/devicemonitor">'
p171
sS'auth'
p172
S'<gluon.tools.Auth object>'
p173
sS'P'
S"<class 'gluon.html.P'>"
p174
sS'TFOOT'
p175
S"<class 'gluon.html.TFOOT'>"
p176
sS'XHTML'
p177
S"<class 'gluon.html.XHTML'>"
p178
sS'datetime'
p179
S"<type 'datetime.datetime'>"
p180
sS'ON'
p181
S'True'
p182
sS'OL'
p183
S"<class 'gluon.html.OL'>"
p184
sS'TEXTAREA'
p185
S"<class 'gluon.html.TEXTAREA'>"
p186
sS'MENU'
p187
S"<class 'gluon.html.MENU'>"
p188
sS'LOAD'
p189
S'<function LOAD>'
p190
sS'CODE'
p191
S"<class 'gluon.html.CODE'>"
p192
sS'HTTP'
p193
S"<class 'gluon.http.HTTP'>"
p194
sS'HR'
p195
S"<class 'gluon.html.HR'>"
p196
sS'IS_DATETIME'
p197
S"<class 'gluon.validators.IS_DATETIME'>"
p198
sS'HEAD'
p199
S"<class 'gluon.html.HEAD'>"
p200
sS'LABEL'
p201
S"<class 'gluon.html.LABEL'>"
p202
sS'CLEANUP'
p203
S"<class 'gluon.validators.CLEANUP'>"
p204
sS'plugins'
p205
S'<gluon.tools.PluginManager object>'
p206
sS'SELECT'
p207
S"<class 'gluon.html.SELECT'>"
p208
sS'CENTER'
p209
S"<class 'gluon.html.CENTER'>"
p210
sS'Crud'
p211
S"<class 'gluon.tools.Crud'>"
p212
sS'Auth'
p213
S"<class 'gluon.tools.Auth'>"
p214
sS'__builtins__'
p215
S"{'ArithmeticError': <type 'exceptions.ArithmeticError'>, 'AssertionError': <type 'exceptions.AssertionError'>, 'AttributeError': <type 'exceptions.AttributeError'>, 'BaseException': <type 'exceptions.BaseException'>, 'BufferError': <type 'exceptions.BufferError'>, 'BytesWarning': <type 'exceptions.BytesWarning'>, 'DeprecationWarning': <type 'exceptions.DeprecationWarning'>, 'EOFError': <type 'exceptions.EOFError'>, 'Ellipsis': Ellipsis, 'EnvironmentError': <type 'exceptions.EnvironmentError'>, ...}"
p216
sS'os_id'
p217
S"<Row {'general_table': <Set (general_table.config_type = 11)>, 'id': 11L}>"
p218
sS'SQLFORM'
p219
S"<class 'gluon.sqlhtml.SQLFORM'>"
p220
sS'EM'
p221
S"<class 'gluon.html.EM'>"
p222
sS'redirect'
p223
S'<function redirect>'
p224
sS'FIELDSET'
p225
S"<class 'gluon.html.FIELDSET'>"
p226
sS'IS_EQUAL_TO'
p227
S"<class 'gluon.validators.IS_EQUAL_TO'>"
p228
sS'embed64'
p229
S'<function embed64>'
p230
sS'IS_LIST_OF'
p231
S"<class 'gluon.validators.IS_LIST_OF'>"
p232
sS'__name__'
p233
S"'__restricted__'"
p234
sS'EMBED'
p235
S"<class 'gluon.html.EMBED'>"
p236
sS'FORM'
p237
S"<class 'gluon.html.FORM'>"
p238
sS'myconf'
p239
S"{'forms': {'formstyle': 'bootstrap3_stacked', 's...nse', 'pln': 'Plan', 'oss': 'OS', 'usr': 'User'}}"
p240
sS'H2'
p241
S"<class 'gluon.html.H2'>"
p242
sS'H3'
p243
S"<class 'gluon.html.H3'>"
p244
sS'AppConfig'
p245
S'<function AppConfig>'
p246
sS'H1'
p247
S"<class 'gluon.html.H1'>"
p248
sS'H6'
p249
S"<class 'gluon.html.H6'>"
p250
sS'H4'
p251
S"<class 'gluon.html.H4'>"
p252
sS'H5'
p253
S"<class 'gluon.html.H5'>"
p254
sS'UL'
p255
S"<class 'gluon.html.UL'>"
p256
sS'IS_UPPER'
p257
S"<class 'gluon.validators.IS_UPPER'>"
p258
sS'xmlescape'
p259
S'<function xmlescape>'
p260
sS'IS_TIME'
p261
S"<class 'gluon.validators.IS_TIME'>"
p262
sS'OPTION'
p263
S"<class 'gluon.html.OPTION'>"
p264
sS'TITLE'
p265
S"<class 'gluon.html.TITLE'>"
p266
sS'CRYPT'
p267
S"<class 'gluon.validators.CRYPT'>"
p268
sS'IS_EMPTY_OR'
p269
S"<class 'gluon.validators.IS_EMPTY_OR'>"
p270
sS'MARKMIN'
p271
S"<class 'gluon.html.MARKMIN'>"
p272
sS'INPUT'
p273
S"<class 'gluon.html.INPUT'>"
p274
sS'application_id'
p275
S"<Row {'general_table': <Set (general_table.config_type = 6)>, 'id': 6L}>"
p276
sS'STRONG'
p277
S"<class 'gluon.html.STRONG'>"
p278
sS'COL'
p279
S"<class 'gluon.html.COL'>"
p280
sS'plan_id'
p281
S"''"
p282
sS'service'
p283
S'<gluon.tools.Service object>'
p284
sS'SCRIPT'
p285
S"<class 'gluon.html.SCRIPT'>"
p286
sS'TABLE'
p287
S"<class 'gluon.html.TABLE'>"
p288
sS'THEAD'
p289
S"<class 'gluon.html.THEAD'>"
p290
sS'IS_IPV4'
p291
S"<class 'gluon.validators.IS_IPV4'>"
p292
sS'IS_LENGTH'
p293
S"<class 'gluon.validators.IS_LENGTH'>"
p294
sS'IS_IPV6'
p295
S"<class 'gluon.validators.IS_IPV6'>"
p296
sS'XML'
p297
S"<class 'gluon.html.XML'>"
p298
sS'B'
S"<class 'gluon.html.B'>"
p299
sS'IMG'
p300
S"<class 'gluon.html.IMG'>"
p301
sS'SQLTABLE'
p302
S"<class 'gluon.sqlhtml.SQLTABLE'>"
p303
sS'IS_MATCH'
p304
S"<class 'gluon.validators.IS_MATCH'>"
p305
sS'IS_ALPHANUMERIC'
p306
S"<class 'gluon.validators.IS_ALPHANUMERIC'>"
p307
sS'license_id'
p308
S"<Row {'general_table': <Set (general_table.config_type = 8)>, 'id': 8L}>"
p309
sS'SPAN'
p310
S"<class 'gluon.html.SPAN'>"
p311
sS'IS_JSON'
p312
S"<class 'gluon.validators.IS_JSON'>"
p313
sS'IS_IPADDRESS'
p314
S"<class 'gluon.validators.IS_IPADDRESS'>"
p315
sS'IS_SLUG'
p316
S"<class 'gluon.validators.IS_SLUG'>"
p317
sS'BEAUTIFY'
p318
S"<class 'gluon.html.BEAUTIFY'>"
p319
sS'META'
p320
S"<class 'gluon.html.META'>"
p321
sS'BUTTON'
p322
S"<class 'gluon.html.BUTTON'>"
p323
sS'IS_DATE'
p324
S"<class 'gluon.validators.IS_DATE'>"
p325
sS'IS_EMAIL'
p326
S"<class 'gluon.validators.IS_EMAIL'>"
p327
sS'IS_NOT_EMPTY'
p328
S"<class 'gluon.validators.IS_NOT_EMPTY'>"
p329
sS'IS_FLOAT_IN_RANGE'
p330
S"<class 'gluon.validators.IS_FLOAT_IN_RANGE'>"
p331
sS'TBODY'
p332
S"<class 'gluon.html.TBODY'>"
p333
sS'l_code'
p334
S'<Rows (2)>'
p335
sS'CAT'
p336
S"<class 'gluon.html.CAT'>"
p337
sS'Field'
p338
S"<class 'pydal.objects.Field'>"
p339
sS'IS_LIST_OF_EMAILS'
p340
S"<class 'gluon.validators.IS_LIST_OF_EMAILS'>"
p341
sS'LEGEND'
p342
S"<class 'gluon.html.LEGEND'>"
p343
sS'DIV'
p344
S"<class 'gluon.html.DIV'>"
p345
sS'location_id'
p346
S"<Row {'general_table': <Set (general_table.config_type = 3)>, 'id': 3L}>"
p347
sS'id'
p348
S"<Row {'general_table': <Set (general_table.config_type = 11)>, 'id': 11L}>"
p349
sS'COLGROUP'
p350
S"<class 'gluon.html.COLGROUP'>"
p351
sS'DAL'
p352
S"<class 'pydal.base.DAL'>"
p353
sS'ASSIGNJS'
p354
S'<function ASSIGNJS>'
p355
sS'TR'
p356
S"<class 'gluon.html.TR'>"
p357
sS'__package__'
p358
S'None'
p359
sS'IFRAME'
p360
S"<class 'gluon.html.IFRAME'>"
p361
sS'TD'
p362
S"<class 'gluon.html.TD'>"
p363
sS'PluginManager'
p364
S"<class 'gluon.tools.PluginManager'>"
p365
sS'IS_URL'
p366
S"<class 'gluon.validators.IS_URL'>"
p367
sS'A'
S"<class 'gluon.html.A'>"
p368
sS'STYLE'
p369
S"<class 'gluon.html.STYLE'>"
p370
sS'IS_DATETIME_IN_RANGE'
p371
S"<class 'gluon.validators.IS_DATETIME_IN_RANGE'>"
p372
sS'HTML'
p373
S"<class 'gluon.html.HTML'>"
p374
sS'IS_IMAGE'
p375
S"<class 'gluon.validators.IS_IMAGE'>"
p376
sS'I'
S"<class 'gluon.html.I'>"
p377
sS'crud'
p378
S'<gluon.tools.Crud object>'
p379
sS'IS_NOT_IN_DB'
p380
S"<class 'gluon.validators.IS_NOT_IN_DB'>"
p381
sS'd_code'
p382
S'<Rows (5)>'
p383
sg117
S"<Storage {'body': <cStringIO.StringO object at 0...at 0x7f4bce184938>, 'view': 'default/rent.html'}>"
p384
sS'device_id'
p385
S"<Row {'general_table': <Set (general_table.config_type = 1)>, 'id': 1L}>"
p386
sS'ANY_OF'
p387
S"<class 'gluon.validators.ANY_OF'>"
p388
sS'IS_NULL_OR'
p389
S"<class 'gluon.validators.IS_EMPTY_OR'>"
p390
sS'user_id'
p391
S"<Row {'general_table': <Set (general_table.config_type = 9)>, 'id': 9L}>"
p392
sg56
S"<Storage {'_vars': None, 'function': 'rent', 'co... '/home/nyeinchan/web2py/applications/monitor/'}>"
p393
sS'IS_EXPR'
p394
S"<class 'gluon.validators.IS_EXPR'>"
p395
sS'IS_IN_SET'
p396
S"<class 'gluon.validators.IS_IN_SET'>"
p397
sS'IS_UPLOAD_FILENAME'
p398
S"<class 'gluon.validators.IS_UPLOAD_FILENAME'>"
p399
sS'IS_DECIMAL_IN_RANGE'
p400
S"<class 'gluon.validators.IS_DECIMAL_IN_RANGE'>"
p401
sS'TT'
p402
S"<class 'gluon.html.TT'>"
p403
sS'T'
S'<gluon.languages.translator object>'
p404
sssS'traceback'
p405
S'Traceback (most recent call last):\n  File "/home/nyeinchan/web2py/gluon/restricted.py", line 227, in restricted\n    exec ccode in environment\n  File "/home/nyeinchan/web2py/applications/monitor/models/dbsetup.py", line 255, in <module>\n    Field(\'receive_date\', \'datetime\', format="%B %d, %Y", label="Receive Date"),\nTypeError: __init__() got an unexpected keyword argument \'format\'\n'
p406
s.