(dp1
S'output'
p2
S"<type 'exceptions.NameError'> name 'app_assign_id' is not defined"
p3
sS'layer'
p4
S'/home/peace/web2py/applications/monitor/views/default/app_assign_detail.html'
p5
sS'code'
p6
S'response.write(\'<!DOCTYPE html>\\n<html lang="\', escape=False)\nresponse.write(T.accepted_language or \'en\')\nresponse.write(\'">\\n<head>\\n    <meta charset="utf-8">\\n    <meta http-equiv="X-UA-Compatible" content="IE=edge\', escape=False)\nresponse.write(not request.is_local and \',chrome=1\' or \'\')\nresponse.write(\'">\\n    <meta name="viewport" content="width=device-width, initial-scale=1.0">\\n\\n    <meta name="description" content="A front-end template that helps you build fast, modern mobile web apps.">\\n    <title>\', escape=False)\nresponse.write(T(response.title or request.application))\nresponse.write(\'</title>\\n    <meta name="application-name" content="\', escape=False)\nresponse.write(request.application)\nresponse.write(\'">\\n    <meta name="google-site-verification" content="">\\n    <meta name="mobile-web-app-capable" content="yes">\\n    <link rel="icon" sizes="192x192" href="\', escape=False)\nresponse.write(URL(\'static\',\'images/android-desktop.png\'))\nresponse.write(\'">\\n\\n    <!-- Add to homescreen for Safari on iOS -->\\n    <meta name="apple-mobile-web-app-capable" content="yes">\\n    <meta name="apple-mobile-web-app-status-bar-style" content="black">\\n    <meta name="apple-mobile-web-app-title" content="Material Design Lite">\\n    <link rel="apple-touch-icon-precomposed" href="\', escape=False)\nresponse.write(URL(\'static\',\'images/ios-desktop.png\'))\nresponse.write(\'">\\n    <!-- include stylesheets -->\\n    <link rel="stylesheet" href="\', escape=False)\nresponse.write(URL(\'static\',\'css/bootstrap.min.css\'))\nresponse.write(\'" />\\n    <link rel="stylesheet" href="\', escape=False)\nresponse.write(URL(\'static\',\'css/web2py-bootstrap3.css\'))\nresponse.write(\'" />\\n    <link rel="stylesheet" href="\', escape=False)\nresponse.write(URL(\'static\', \'css/custom.css\'))\nresponse.write(\'" />\\n    <link rel="stylesheet" href="\', escape=False)\nresponse.write(URL(\'static\', \'css/mdl-style.css\'))\nresponse.write(\'" />\\n    <link rel="stylesheet" href="\', escape=False)\nresponse.write(URL(\'static\', \'css/style.css\'))\nresponse.write(\'" />\\n    <link rel="stylesheet" href="\', escape=False)\nresponse.write(URL(\'static\', \'css/myansanspro.css\'))\nresponse.write(\'" />\\n    <link rel="stylesheet" href="\', escape=False)\nresponse.write(URL(\'static\', \'css/material.min.css\'))\nresponse.write(\'" />\\n    <link rel="stylesheet" href="\', escape=False)\nresponse.write(URL(\'static\', \'css/material.css\'))\nresponse.write(\'" />\\n    <link rel="stylesheet" href="\', escape=False)\nresponse.write(URL(\'static\', \'css/angular-material.css\'))\nresponse.write(\'" />\\n    <link rel="stylesheet" href="\', escape=False)\nresponse.write(URL(\'static\', \'css/materialicons.css\'))\nresponse.write(\'" />\\n    <link rel="shortcut icon" href="\', escape=False)\nresponse.write(URL(\'static\',\'images/favicon.ico\'))\nresponse.write(\'" type="image/x-icon" />\\n    <link rel="apple-touch-icon" href="\', escape=False)\nresponse.write(URL(\'static\',\'images/favicon.png\'))\nresponse.write(\'" />\\n\\n    <script src="\', escape=False)\nresponse.write(URL(\'static\',\'js/modernizr-2.8.3.min.js\'))\nresponse.write(\'"></script>\\n    \', escape=False)\nresponse.write(\'<script type="text/javascript"><!--\\n    // These variables are used by the web2py_ajax_init function in web2py_ajax.js (which is loaded below).\\n    var w2p_ajax_confirm_message = "\', escape=False)\nresponse.write(T(\'Are you sure you want to delete this object?\'))\nresponse.write(\'";\\n    var w2p_ajax_disable_with_message = "\', escape=False)\nresponse.write(T(\'Working...\'))\nresponse.write(\'";\\n    var w2p_ajax_date_format = "\', escape=False)\nresponse.write(T(\'%Y-%m-%d\'))\nresponse.write(\'";\\n    var w2p_ajax_datetime_format = "\', escape=False)\nresponse.write(T(\'%Y-%m-%d %H:%M:%S\'))\nresponse.write(\'";\\n    var ajax_error_500 = \\\'\', escape=False)\nresponse.write(T.M(\'An error occured, please [[reload %s]] the page\') % URL(args=request.args, vars=request.get_vars))\nresponse.write("\'\\n    //--></script>\\n", escape=False)\nresponse.files.insert(0,URL(\'static\',\'js/jquery.js\'))\nresponse.files.insert(1,URL(\'static\',\'css/calendar.css\'))\nresponse.files.insert(2,URL(\'static\',\'js/calendar.js\'))\nresponse.files.insert(3,URL(\'static\',\'js/web2py.js\'))\nresponse.include_meta()\nresponse.include_files()\nresponse.write(\'\\n\', escape=False)\nresponse.write(\'\\n</head>\\n<body ng-app="MyApp" ng-cloak="" class="dark-body-color" ng-controller="AppCtrl">\\n    <md-content flex layout-fill layout="column">\\n    <!-- Always shows a header, even in smaller screens. -->\\n    <!-- Masthead ===================================== -->\\n    \', escape=False)\nresponse.write(\'\\n    <md-toolbar class="md-toolbar-tools md-whiteframe-4dp" layout="row" style="background-color:#F44336;">\\n        <md-button class="md-icon-button" ng-show="true" aria-label="menu" ng-click="showSideContent();">\\n            <md-icon md-svg-icon="\', escape=False)\nresponse.write(URL(\'static\', \'images/icons/menu_white_24px.svg\'))\nresponse.write(\'"></md-icon>\\n        </md-button>\\n        <h2>\\n            <span flex>\', escape=False)\nresponse.write(T(response.title or request.application))\nresponse.write(\'</span>\\n        </h2>\\n        <span flex>&nbsp;</span>\\n        <div layout="row" layout-align="center center">\\n            <div class="collapse navbar-collapse navbar-ex1-collapse">\\n                <ul class="nav navbar-nav navbar-right">\\n                    \', escape=False)\nresponse.write(auth.navbar(mode=\'dropdown\') or \'\')\nresponse.write(\'\\n                </ul>\\n                \', escape=False)\nif response.menu:\n    response.write(\'\\n                    \', escape=False)\n    response.write(MENU(response.menu, _class=\'nav navbar-nav\',li_class=\'dropdown\',ul_class=\'dropdown-menu\'))\n    response.write(\'\\n                \', escape=False)\n    pass\nresponse.write(\'\\n            </div>\\n            \', escape=False)\nif hasattr(T,\'get_possible_languages_info\'):\n    response.write(\'\\n            <md-input-container class="" style="background-color:#F44336;">\\n                <select name="adminlanguage" onchange="var date = new       Date();cookieDate=date.setTime(date.getTime()+(100*24*60*60*1000));document.cookie=\\\'adminLanguage=\\\'+this.options[this.selectedIndex].id+\\\'; expires=\\\'+cookieDate+\\\'; path=/\\\';window.location.pathname=\\\'\', escape=False)\n    response.write(request.application)\n    response.write(\'/\\\'+this.options[this.selectedIndex].value;"\\n                    class="btn btn-default">\\n                    \', escape=False)\n    for langinfo in sorted([(code,info[1]) for code,info in T.get_possible_languages_info().iteritems() if (code != \'default\') and (code in [\'my-mm\', \'en-us\'])   ]):\n        response.write(\'\\n                        <option \', escape=False)\n        response.write(T.accepted_language==langinfo[0] and \'selected\' or \'\')\n        response.write(\' \', escape=False)\n        response.write(\'id=\'+langinfo[0])\n        response.write(\' \', escape=False)\n        response.write(\'value=\'+langinfo[0])\n        response.write(\'>\\n                            \', escape=False)\n        response.write(langinfo[1])\n        response.write(\'\\n                        </option>\\n                    \', escape=False)\n        pass\n    response.write(\'\\n                        </select>\\n            </md-input-container>\\n            \', escape=False)\n    pass\nresponse.write(\'\\n        </div>\\n    </md-toolbar>\\n    \', escape=False)\nresponse.write(\'\\n    \', escape=False)\nresponse.write(\'\\n    <md-content flex md-scroll-y layout="row" class="body-color">\\n\\n        <!-- <md-sidenav class="md-sidenav-left" md-component-id="left"> -->\\n            <md-content flex="20" ng-show="showSide" class="md-whiteframe-4dp" layout="column">\\n                <section>\\n                    <md-subheader class="md-primary body-color">Home</md-subheader>\\n                    <md-list>\\n                        <md-list-item class="md-actions content-color" ng-href="\', escape=False)\nresponse.write(URL(\'default\', \'index\'))\nresponse.write(\'">\\n                            <md-icon md-svg-icon="\', escape=False)\nresponse.write(URL(\'static\', \'images/icons/bottle_white_24px.svg\'))\nresponse.write(\'"></md-icon>\\n                            <p>\', escape=False)\nresponse.write(T("Home"))\nresponse.write(\'</p>\\n                        </md-list-item>\\n                        <md-list-item class="md-actions content-color" ng-href="\', escape=False)\nresponse.write(URL(\'default\', \'getGPS\'))\nresponse.write(\'">\\n                            <md-icon md-svg-icon="\', escape=False)\nresponse.write(URL(\'static\', \'images/icons/bottle_white_24px.svg\'))\nresponse.write(\'"></md-icon>\\n                            <p>\', escape=False)\nresponse.write(T("Location"))\nresponse.write(\'</p>\\n                        </md-list-item>\\n                        <md-list-item class="md-actions content-color" ng-href="\', escape=False)\nresponse.write(URL(\'default\', \'assign\'))\nresponse.write(\'">\\n                            <md-icon md-svg-icon="\', escape=False)\nresponse.write(URL(\'static\', \'images/icons/bottle_white_24px.svg\'))\nresponse.write(\'"></md-icon>\\n                            <p>\', escape=False)\nresponse.write(T("Register"))\nresponse.write(\'</p>\\n                        </md-list-item>\\n                        <md-list-item class="md-actions content-color" ng-href="\', escape=False)\nresponse.write(URL(\'default\', \'rent\'))\nresponse.write(\'">\\n                            <md-icon md-svg-icon="\', escape=False)\nresponse.write(URL(\'static\', \'images/icons/bottle_white_24px.svg\'))\nresponse.write(\'"></md-icon>\\n                            <p>\', escape=False)\nresponse.write(T("Rent"))\nresponse.write(\'</p>\\n                        </md-list-item>\\n                    </md-list>\\n                </section>\\n                <md-divider></md-divider>\\n                <section>\\n                    <md-subheader class="md-primary body-color">\', escape=False)\nresponse.write(T(\'Device\'))\nresponse.write(\'</md-subheader>\\n                    <md-list>\\n                        <md-list-item class="md-actions content-color" ng-href="\', escape=False)\nresponse.write(URL(\'default\', \'device\'))\nresponse.write(\'">\\n                            <md-icon md-svg-icon="\', escape=False)\nresponse.write(URL(\'static\', \'images/icons/bottle_white_24px.svg\'))\nresponse.write(\'"></md-icon>\\n                            <p>\', escape=False)\nresponse.write(T("Device"))\nresponse.write(\'</p>\\n                        </md-list-item>\\n                        <md-list-item class="md-actions content-color" ng-href="\', escape=False)\nresponse.write(URL(\'default\', \'device_brand\'))\nresponse.write(\'">\\n                            <md-icon md-svg-icon="\', escape=False)\nresponse.write(URL(\'static\', \'images/icons/bottle_white_24px.svg\'))\nresponse.write(\'"></md-icon>\\n                            <p>\', escape=False)\nresponse.write(T("Brand"))\nresponse.write(\'</p>\\n                        </md-list-item>\\n                        <md-list-item class="md-actions" ng-href="\', escape=False)\nresponse.write(URL(\'default\', \'device_model\'))\nresponse.write(\'">\\n                            <md-icon md-svg-icon="\', escape=False)\nresponse.write(URL(\'static\', \'images/icons/bottle_white_24px.svg\'))\nresponse.write(\'"></md-icon>\\n                            <p>\', escape=False)\nresponse.write(T("Model"))\nresponse.write(\'</p>\\n                        </md-list-item>\\n                        <md-list-item class="md-actions" ng-href="\', escape=False)\nresponse.write(URL(\'default\', \'device_os\'))\nresponse.write(\'">\\n                            <md-icon md-svg-icon="\', escape=False)\nresponse.write(URL(\'static\', \'images/icons/bottle_white_24px.svg\'))\nresponse.write(\'"></md-icon>\\n                            <p>\', escape=False)\nresponse.write(T("OS"))\nresponse.write(\'</p>\\n                        </md-list-item>\\n                        <md-list-item class="md-actions" ng-href="\', escape=False)\nresponse.write(URL(\'default\', \'device_type\'))\nresponse.write(\'">\\n                            <md-icon md-svg-icon="\', escape=False)\nresponse.write(URL(\'static\', \'images/icons/bottle_white_24px.svg\'))\nresponse.write(\'"></md-icon>\\n                            <p>\', escape=False)\nresponse.write(T("Type"))\nresponse.write(\'</p>\\n                        </md-list-item>\\n                    </md-list>\\n                </section>\\n                <md-divider></md-divider>\\n                <section>\\n                    <md-subheader class="md-primary body-color">\', escape=False)\nresponse.write(T(\'Software\'))\nresponse.write(\'</md-subheader>\\n                    <md-list>\\n                        <md-list-item class="md-actions" ng-href="\', escape=False)\nresponse.write(URL(\'default\', \'apps_type\'))\nresponse.write(\'">\\n                            <md-icon md-svg-icon="\', escape=False)\nresponse.write(URL(\'static\', \'images/icons/bottle_white_24px.svg\'))\nresponse.write(\'"></md-icon>\\n                            <p>\', escape=False)\nresponse.write(T("Application Type"))\nresponse.write(\'</p>\\n                        </md-list-item>\\n                        <md-list-item class="md-actions" ng-href="\', escape=False)\nresponse.write(URL(\'default\', \'apps\'))\nresponse.write(\'">\\n                            <md-icon md-svg-icon="\', escape=False)\nresponse.write(URL(\'static\', \'images/icons/bottle_white_24px.svg\'))\nresponse.write(\'"></md-icon>\\n                            <p>\', escape=False)\nresponse.write(T("Applications"))\nresponse.write(\'</p>\\n                        </md-list-item>\\n                        <md-list-item class="md-actions" ng-href="\', escape=False)\nresponse.write(URL(\'default\', \'app_assign\'))\nresponse.write(\'">\\n                            <md-icon md-svg-icon="\', escape=False)\nresponse.write(URL(\'static\', \'images/icons/bottle_white_24px.svg\'))\nresponse.write(\'"></md-icon>\\n                            <p>\', escape=False)\nresponse.write(T("Software"))\nresponse.write(\'</p>\\n                        </md-list-item>\\n                    </md-list>\\n                </section>\\n                <md-divider></md-divider>\\n                <section>\\n                    <md-subheader class="md-primary body-color">\', escape=False)\nresponse.write(T(\'Employee\'))\nresponse.write(\'</md-subheader>\\n                    <md-list>\\n                        <md-list-item class="md-actions" ng-href="\', escape=False)\nresponse.write(URL(\'default\', \'employee\'))\nresponse.write(\'">\\n                            <md-icon md-svg-icon="\', escape=False)\nresponse.write(URL(\'static\', \'images/icons/bottle_white_24px.svg\'))\nresponse.write(\'"></md-icon>\\n                            <p>\', escape=False)\nresponse.write(T("Employee"))\nresponse.write(\'</p>\\n                        </md-list-item>\\n                        <md-list-item class="md-actions" ng-href="\', escape=False)\nresponse.write(URL(\'default\', \'email_account\'))\nresponse.write(\'">\\n                            <md-icon md-svg-icon="\', escape=False)\nresponse.write(URL(\'static\', \'images/icons/bottle_white_24px.svg\'))\nresponse.write(\'"></md-icon>\\n                            <p>\', escape=False)\nresponse.write(T("E-Mail"))\nresponse.write(\'</p>\\n                        </md-list-item>\\n                    </md-list>\\n                </section>\\n                <md-divider></md-divider>\\n                <section>\\n                    <md-list>\\n                        <md-list-item class="md-actions" ng-href="\', escape=False)\nresponse.write(URL(\'default\', \'apps\'))\nresponse.write(\'">\\n                            <md-icon md-svg-icon="\', escape=False)\nresponse.write(URL(\'static\', \'images/icons/bottle_white_24px.svg\'))\nresponse.write(\'"></md-icon>\\n                            <p>\', escape=False)\nresponse.write(T("Application"))\nresponse.write(\'</p>\\n                        </md-list-item>\\n                        <md-divider></md-divider>\\n                        <md-list-item class="md-actions" ng-href="\', escape=False)\nresponse.write(URL(\'default\', \'sim\'))\nresponse.write(\'">\\n                            <md-icon md-svg-icon="\', escape=False)\nresponse.write(URL(\'static\', \'images/icons/bottle_white_24px.svg\'))\nresponse.write(\'"></md-icon>\\n                            <p>\', escape=False)\nresponse.write(T("SIM"))\nresponse.write(\'</p>\\n                        </md-list-item>\\n                        <md-divider></md-divider>\\n                        <md-list-item class="md-actions" ng-href="\', escape=False)\nresponse.write(URL(\'default\', \'room\'))\nresponse.write(\'">\\n                            <md-icon md-svg-icon="\', escape=False)\nresponse.write(URL(\'static\', \'images/icons/bottle_white_24px.svg\'))\nresponse.write(\'"></md-icon>\\n                            <p>\', escape=False)\nresponse.write(T("Room"))\nresponse.write(\'</p>\\n                        </md-list-item>\\n                        <md-divider></md-divider>\\n                        <md-list-item class="md-actions" ng-href="\', escape=False)\nresponse.write(URL(\'default\', \'general_table\'))\nresponse.write(\'">\\n                            <md-icon md-svg-icon="\', escape=False)\nresponse.write(URL(\'static\', \'images/icons/bottle_white_24px.svg\'))\nresponse.write(\'"></md-icon>\\n                            <p>\', escape=False)\nresponse.write(T("General"))\nresponse.write(\'</p>\\n                        </md-list-item>\\n                        <md-divider></md-divider>\\n                        <md-subheader class="md-primary body-color">\', escape=False)\nresponse.write(T(\'Information\'))\nresponse.write(\'</md-subheader>\\n                        <md-list-item ng-click="show_layout=\\\'deals_range_list\\\'" class="md-actions" ng-href="\', escape=False)\nresponse.write(URL(\'default\', \'about\'))\nresponse.write(\'">\\n                            <md-icon md-svg-icon="\', escape=False)\nresponse.write(URL(\'static\', \'images/icons/bottle_white_24px.svg\'))\nresponse.write(\'"></md-icon>\\n                            <p>\', escape=False)\nresponse.write(T("About"))\nresponse.write(\'</p>\\n                        </md-list-item>\\n                    </md-list>\\n                </section>\\n\\n                <spand flex>&nbsp;</spand>\\n            </md-content>\\n        <!-- </md-sidenav> -->\\n        <div flex class="body-color">\\n            \', escape=False)\nresponse.write(\'\\n<div flex>\\n<md-content flex layout-fill  layout="column" ng-cloak="" class="body-color">\\n    <div flex style="margin:10px;" layout="column">\\n        <md-card name="productDetail">\\n          <!-- <md-toolbar class="md-warn"> -->\\n            <md-card-title>\\n              <md-card-title-text>\\n                <span class="md-title" flex>\', escape=False)\nresponse.write(T(response.moduleTitle))\nresponse.write(\'</span>\\n              </md-card-title-text>\\n            </md-card-title>\\n          <!-- </md-toolbar> -->\\n          <!-- <md-dialog-content> -->\\n            <md-card-content class="md-dialog-content" layout="column" flex>\\n\\t\\t\\t\\t\\t<div layout="row" flex>\\n\\t\\t\\t\\t\\t\\t<div flex>\', escape=False)\nresponse.write(form_app_assign_detail)\nresponse.write(\'</div>\\n                \\t\\t<div flex>\', escape=False)\nresponse.write(LOAD(\'default\', \'app_assign_detail_list.load\', vars=dict(app_assign_id=app_assign_id), ajax=True))\nresponse.write(\'</div>\\n\\t\\t\\t\\t\\t</div>\\n            </md-card-content>\\n          <!-- </md-dialog-content> -->\\n        </md-card>\\n    </div>\\n</md-content>\\n</div>\\n\', escape=False)\nresponse.write(\'\\n        </div>\\n        \', escape=False)\nresponse.write(\'\\n    </md-content>\\n    \', escape=False)\nresponse.write(\'\\n    <div id="web2py-my-toast" class="mdl-js-snackbar mdl-snackbar">\\n        <div class="mdl-snackbar__text"></div>\\n        <button class="mdl-snackbar__action" type="button"></button>\\n    </div>\\n    \', escape=False)\nresponse.write(\'\\n</md-content>\\n    <!-- The javascript =============================== -->\\n    <script src="\', escape=False)\nresponse.write(URL(\'static\',\'js/bootstrap.min.js\'))\nresponse.write(\'"></script>\\n    <script src="\', escape=False)\nresponse.write(URL(\'static\',\'js/web2py-bootstrap3.js\'))\nresponse.write(\'"></script>\\n    <script src="\', escape=False)\nresponse.write(URL(\'static\',\'js/jquery.js\'))\nresponse.write(\'"></script>\\n    <script src="\', escape=False)\nresponse.write(URL(\'static\',\'js/jquery-2.1.4.min.js\'))\nresponse.write(\'"></script>\\n    <script src="\', escape=False)\nresponse.write(URL(\'static\',\'js/jquery.base64.js\'))\nresponse.write(\'"></script>\\n\\n    <script src="\', escape=False)\nresponse.write(URL(\'static\', \'js/angular.js\'))\nresponse.write(\'"></script>\\n    <script src="\', escape=False)\nresponse.write(URL(\'static\', \'js/material.min.js\'))\nresponse.write(\'"></script>\\n    <script src="\', escape=False)\nresponse.write(URL(\'static\', \'js/angular-material.js\'))\nresponse.write(\'"></script>\\n    <script src="\', escape=False)\nresponse.write(URL(\'static\', \'js/angular-aria.js\'))\nresponse.write(\'"></script>\\n    <script src="\', escape=False)\nresponse.write(URL(\'static\', \'js/angular-animate.js\'))\nresponse.write(\'"></script>\\n    <script src="\', escape=False)\nresponse.write(URL(\'static\', \'js/angular-messages.js\'))\nresponse.write(\'"></script>\\n    <script src="\', escape=False)\nresponse.write(URL(\'static\', \'js/script.js\'))\nresponse.write(\'"></script>\\n\\n    \', escape=False)\nresponse.write(\'\\n    <script>\\n        // var MyApp = angular.module(\\\'MyApp\\\', [\\\'ngMaterial\\\', \\\'ngMessages\\\']);\\n        // MyApp.controller(\\\'AppCtrl\\\', [\\\'$scope\\\', \\\'$mdDialog\\\', \\\'$http\\\', function($scope, $mdDialog, $http) {\\n        //\\n        // }]);\\n        (function() {\\n            \\\'use strict\\\';\\n            var snackbarContainer = document.querySelector(\\\'#web2py-my-toast\\\');\\n            var data = {\\n                message: "\', escape=False)\nresponse.write(response.flash or \'\')\nresponse.write(\'"\\n            };\\n            var timeout_id = setTimeout(function() {\\n                snackbarContainer.MaterialSnackbar.showSnackbar(data);\\n            }, 1000);\\n        }());\\n    </script>\\n\\n</body>\\n\\n</html>\\n\', escape=False)'
p7
sS'snapshot'
p8
(dp9
sS'traceback'
p10
S'Traceback (most recent call last):\n  File "/home/peace/web2py/gluon/restricted.py", line 227, in restricted\n    exec ccode in environment\n  File "/home/peace/web2py/applications/monitor/views/default/app_assign_detail.html", line 219, in <module>\nNameError: name \'app_assign_id\' is not defined\n'
p11
s.