(dp1
S'output'
p2
S'Unable to open included view file: /home/nyeinchan/web2py/applications/monitor/views/brand_detail.html'
p3
sS'layer'
p4
S'ParserContainer'
p5
sS'code'
p6
S'{{extend \'mylayout.html\'}}\n\n<div flex>\n<md-content flex layout-fill ng-controller="ProductCtrl" layout="column" ng-cloak="" class="body-color">\n  <div flex style="margin:10px;" layout="column">\n    <div flex>\n      <label class="md-title" layout-padding style="color:red;">{{=response.moduleTitle}} List</label>\n    </div>\n    <div style="height:1%;">&nbsp;</div>\n    <div ng-show="show_layout==true">{{include \'brand_detail.html\'}}</div>\n    <div class="" flex layout="row">\n      <md-checkbox style="margin:15px;" aria-label="select_all" ng-model="cbValue.cbselect_all">\n        Select All\n      </md-checkbox>\n      <span flex>&nbsp;</span>\n      <md-button class="md-raised md-warn" ng-click="showProductDetail();">Add New\n      </md-button>\n      <md-button class="md-raised" ng-show="cbValue.cbselect_edit">Delete</md-button>\n    </div>\n    <md-content flex class="body-color rounded-block" layout="column">\n    {{for row in data:}}\n      <div>\n        <md-card layout="row" layout-align="start center">\n          <md-checkbox class="margin-fifteen" aria-label="select_edit" ng-model=""></md-checkbox>\n          <md-button layout-fill layout-align="center center" ng-value="name" >{{row.name}}</md-button>\n          <md-button ng-value="item.product_statusbool" >{{row.is_active}}</md-button>\n        </md-card>\n      </div>\n    {{pass}}\n    </md-content>\n  </div>\n</md-content>\n</div>\n'
p7
sS'snapshot'
p8
(dp9
S'exception'
p10
(dp11
S'__getslice__'
p12
S"<method-wrapper '__getslice__' of exceptions.IOError object>"
p13
sS'__str__'
p14
S"<method-wrapper '__str__' of exceptions.IOError object>"
p15
sS'__reduce__'
p16
S'<built-in method __reduce__ of exceptions.IOError object>'
p17
sS'__dict__'
p18
S'{}'
p19
sS'__sizeof__'
p20
S'<built-in method __sizeof__ of exceptions.IOError object>'
p21
sS'__init__'
p22
S"<method-wrapper '__init__' of exceptions.IOError object>"
p23
sS'__setattr__'
p24
S"<method-wrapper '__setattr__' of exceptions.IOError object>"
p25
sS'__reduce_ex__'
p26
S'<built-in method __reduce_ex__ of exceptions.IOError object>'
p27
sS'__new__'
p28
S'<built-in method __new__ of type object>'
p29
sS'errno'
p30
S'2'
sS'__format__'
p31
S'<built-in method __format__ of exceptions.IOError object>'
p32
sS'__class__'
p33
S"<type 'exceptions.IOError'>"
p34
sS'filename'
p35
S"'/home/nyeinchan/web2py/applications/monitor/views/brand_detail.html'"
p36
sS'__doc__'
p37
S"'I/O operation failed.'"
p38
sS'__getitem__'
p39
S"<method-wrapper '__getitem__' of exceptions.IOError object>"
p40
sS'__setstate__'
p41
S'<built-in method __setstate__ of exceptions.IOError object>'
p42
sS'__getattribute__'
p43
S"<method-wrapper '__getattribute__' of exceptions.IOError object>"
p44
sS'args'
p45
S"(2, 'No such file or directory')"
p46
sS'__subclasshook__'
p47
S'<built-in method __subclasshook__ of type object>'
p48
sS'__unicode__'
p49
S'<built-in method __unicode__ of exceptions.IOError object>'
p50
sS'strerror'
p51
S"'No such file or directory'"
p52
sS'__delattr__'
p53
S"<method-wrapper '__delattr__' of exceptions.IOError object>"
p54
sS'__repr__'
p55
S"<method-wrapper '__repr__' of exceptions.IOError object>"
p56
sS'__hash__'
p57
S"<method-wrapper '__hash__' of exceptions.IOError object>"
p58
ssS'evalue'
p59
S"[Errno 2] No such file or directory: '/home/nyeinchan/web2py/applications/monitor/views/brand_detail.html'"
p60
sS'frames'
p61
(lp62
(dp63
S'file'
p64
S'/home/nyeinchan/web2py/gluon/template.py'
p65
sS'dump'
p66
(dp67
S'builtinopen'
p68
S'<built-in function open>'
p69
sS'fileobj'
p70
S'undefined'
p71
sS'filepath'
p72
S"'/home/nyeinchan/web2py/applications/monitor/views/brand_detail.html'"
p73
ssS'lnum'
p74
I450
sS'lines'
p75
(dp76
I448
S'        # try to read the text.'
p77
sI449
S'        try:'
p78
sI450
S"            fileobj = open(filepath, 'rb')"
p79
sI451
S'            text = fileobj.read()'
p80
sI452
S'            fileobj.close()'
p81
sI453
S'        except IOError:'
p82
sI454
S"            self._raise_error('Unable to open included view file: ' + filepath)"
p83
sI445
S'        # Get the path of the file on the system.'
p84
sI446
S'        filepath = self.path and os.path.join(self.path, filename) or filename'
p85
sI447
S''
ssS'call'
p86
S"(self=<gluon.template.TemplateParser object>, filename='brand_detail.html')"
p87
sS'func'
p88
S'_get_file_text'
p89
sasS'pyver'
p90
S'Python 2.7.12: /usr/bin/python (prefix: /usr)'
p91
sS'etype'
p92
S"<type 'exceptions.IOError'>"
p93
sS'date'
p94
S'Mon Sep 19 00:27:00 2016'
p95
sS'locals'
p96
(dp97
S'self'
p98
S'<gluon.template.TemplateParser object>'
p99
sS'filepath'
p100
S"'/home/nyeinchan/web2py/applications/monitor/views/brand_detail.html'"
p101
sS'context'
p102
S"{'A': <class 'gluon.html.A'>, 'ANY_OF': <class 'gluon.validators.ANY_OF'>, 'ASSIGNJS': <function ASSIGNJS>, 'AppConfig': <function AppConfig>, 'Auth': <class 'gluon.tools.Auth'>, 'B': <class 'gluon.html.B'>, 'BEAUTIFY': <class 'gluon.html.BEAUTIFY'>, 'BODY': <class 'gluon.html.BODY'>, 'BR': <class 'gluon.html.BR'>, 'BUTTON': <class 'gluon.html.BUTTON'>, ...}"
p103
sg35
S"'brand_detail.html'"
p104
sssS'traceback'
p105
S'Traceback (most recent call last):\n  File "/home/nyeinchan/web2py/gluon/template.py", line 450, in _get_file_text\n    fileobj = open(filepath, \'rb\')\nIOError: [Errno 2] No such file or directory: \'/home/nyeinchan/web2py/applications/monitor/views/brand_detail.html\'\n'
p106
s.