(dp1
S'output'
p2
S"<type 'exceptions.TypeError'> __call__() got an unexpected keyword argument 'rname'"
p3
sS'layer'
p4
S'/home/nyeinchan/web2py/applications/monitor/models/dbsetup.py'
p5
sS'code'
p6
S"from datetime import datetime\nfrom gluon.contrib.appconfig import AppConfig\nmyconf = AppConfig(reload=True)\n\n\n## brand\ndb.define_table('brand',\n\tField('name', 'string', requires=[IS_NOT_EMPTY()]),\n\tField('is_active', 'boolean', default=True),\n\tField('created_on', 'datetime', default=request.now,\n\t\t\treadable=True, writable=False),\n\tField('created_by', 'reference auth_user', default=auth.user_id,\n\t\t\treadable=True, writable=False),\n\tField('modified_on', 'datetime', update=request.now,\n\t\t\treadable=True, writable=False),\n\tField('modified_by', 'reference auth_user', update=auth.user_id,\n\t\t\treadable=True, writable=False),\n\tformat='%(name)s'\n)\n## model\ndb.define_table('model',\n\tField('name', 'string', requires=[IS_NOT_EMPTY()]),\n\tField('brand', 'reference brand', requires=[ IS_IN_DB(db, db.brand.id, '%(name)s'), IS_NOT_EMPTY() ]),\n\tField('is_active', 'boolean', default=True),\n\tField('created_on', 'datetime', default=request.now,\n\t\t\treadable=True, writable=False),\n\tField('created_by', 'reference auth_user', default=auth.user_id,\n\t\t\treadable=True, writable=False),\n\tField('modified_on', 'datetime', update=request.now,\n\t\t\treadable=True, writable=False),\n\tField('modified_by', 'reference auth_user', update=auth.user_id,\n\t\t\treadable=True, writable=False))\n\n\n## config group\ndb.define_table('config_group',\n\tField('name', 'string', requires=[IS_NOT_EMPTY()]),\n\tField('is_active', 'boolean', default=True),\n\tformat='%(name)s'\n)\n\n## config\ndb.define_table('general_table',\n\tField('code', 'string', requires=[IS_NOT_EMPTY()]),\n\tField('name', 'string', requires=[IS_NOT_EMPTY()]),\n\tField('config_type', 'reference config_group', requires=[IS_IN_DB(db, db.config_group.id, '%(name)s'), IS_NOT_EMPTY()]),\n\tField('is_active', 'boolean', default=True),\n\tField('created_on', 'datetime', default=request.now,\n\t\t\treadable=True, writable=False),\n\tField('created_by', 'reference auth_user', default=auth.user_id,\n\t\t\treadable=True, writable=False),\n\tField('modified_on', 'datetime', update=request.now,\n\t\t\treadable=True, writable=False),\n\tField('modified_by', 'reference auth_user', update=auth.user_id,\n\t\t\treadable=True, writable=False),\n\tformat='%(name)s'\n)\n\n\n## Room\ndb.define_table('room',\n\tField('name', 'string', requires=[IS_NOT_EMPTY()]),\n\tField('config', 'reference general_table', requires=[\n\tIS_IN_DB(db(db.general_table.config_type ==db(db.config_group.name==myconf.get('default_type.loc')).select(db.config_group.id)),\n\tdb.general_table.id, '%(name)s'),\n\tIS_NOT_EMPTY() ]),\n\tField('is_active', 'boolean', default=True),\n\tField('created_on', 'datetime', default=request.now,\n\t\t\treadable=True, writable=False),\n\tField('created_by', 'reference auth_user', default=auth.user_id,\n\t\t\treadable=True, writable=False),\n\tField('modified_on', 'datetime', update=request.now,\n\t\t\treadable=True, writable=False),\n\tField('modified_by', 'reference auth_user', update=auth.user_id,\n\t\t\treadable=True, writable=False),\n\tformat='%(name)s'\n)\n\n## apps\ndb.define_table('apps',\n\tField('name', 'string', requires=[IS_NOT_EMPTY()]),\n\tField('app_type', 'reference general_table', requires=[\n\tIS_IN_DB(db(db.general_table.config_type == db(db.config_group.name==myconf.get('default_type.app')).select(db.config_group.id)),\n\tdb.general_table.id, '%(name)s'),\n\tIS_NOT_EMPTY()]),\n\tField('is_active', 'boolean', default=True),\n\tField('created_on', 'datetime', default=request.now,\n\t\t\treadable=True, writable=False),\n\tField('created_by', 'reference auth_user', default=auth.user_id,\n\t\t\treadable=True, writable=False),\n\tField('modified_on', 'datetime', update=request.now,\n\t\t\treadable=True, writable=False),\n\tField('modified_by', 'reference auth_user', update=auth.user_id,\n\t\t\treadable=True, writable=False),\n\tformat='%(name)s'\n)\n\n## employee\ndb.define_table('employee',\n\tField('name', 'string', requires=[IS_NOT_EMPTY()]),\n\tField('job_title', 'string'),\n\tField('department', 'reference general_table', requires=[\n\tIS_IN_DB(db(db.general_table.config_type == db(db.config_group.name==myconf.get('default_type.dpt')).select(db.config_group.id)),\n\tdb.general_table.id, '%(name)s'),\n\tIS_NOT_EMPTY()]),\n\tField('is_active', 'boolean', default=True),\n\tField('created_on', 'datetime', default=request.now,\n\t\t\treadable=True, writable=False),\n\tField('created_by', 'reference auth_user', default=auth.user_id,\n\t\t\treadable=True, writable=False),\n\tField('modified_on', 'datetime', update=request.now,\n\t\t\treadable=True, writable=False),\n\tField('modified_by', 'reference auth_user', update=auth.user_id,\n\t\t\treadable=True, writable=False),\n\tformat='%(name)s')\n\n##sim\ndb.define_table('sim',\n\tField('sim_number', 'string', requires=[IS_NOT_EMPTY()]),\n\tField('brand_type', 'reference general_table', requires=[\n\tIS_IN_DB(db(db.general_table.config_type == db(db.config_group.name==myconf.get('default_type.opt')).select(db.config_group.id), rname='brand'),\n\tdb.general_table.id, '%(name)s'),\n\tIS_NOT_EMPTY()]),\n\tField('plan_type', 'reference general_table', requires=[\n\tIS_IN_DB(db(db.general_table.config_type == db(db.config_group.name==myconf.get('default_type.pln')).select(db.config_group.id), rname='plan'),\n\tdb.general_table.id, '%(name)s'),\n\tIS_NOT_EMPTY()]),\n\tField('is_active', 'boolean', default=True),\n\tField('created_on', 'datetime', default=request.now,\n\t\t\treadable=True, writable=False),\n\tField('created_by', 'reference auth_user', default=auth.user_id,\n\t\t\treadable=True, writable=False),\n\tField('modified_on', 'datetime', update=request.now,\n\t\t\treadable=True, writable=False),\n\tField('modified_by', 'reference auth_user', update=auth.user_id,\n\t\t\treadable=True, writable=False),\n\tformat='%(name)s'\n)\n\n## email\ndb.define_table('email_account',\n\tField('username', 'string', requires=[IS_NOT_EMPTY()]),\n\tField('default_password', 'string'),\n\tField('user_type', 'reference general_table', requires=[\n\tIS_IN_DB(db(db.general_table.config_type == db(db.config_group.name==myconf.get('default_type.user')).select(db.config_group.id)),\n\tdb.general_table.id, '%(name)s'),\n\tIS_NOT_EMPTY()]),\n\tField('license_type', 'reference general_table', requires=[\n\tIS_IN_DB(db(db.general_table.config_type == db(db.config_group.name==myconf.get('default_type.lns')).select(db.config_group.id)),\n\tdb.general_table.id, '%(name)s'),\n\tIS_NOT_EMPTY()]),\n\tField('is_active', 'boolean', default=True),\n\tField('created_on', 'datetime', default=request.now,\n\t\t\treadable=True, writable=False),\n\tField('created_by', 'reference auth_user', default=auth.user_id,\n\t\t\treadable=True, writable=False),\n\tField('modified_on', 'datetime', update=request.now,\n\t\t\treadable=True, writable=False),\n\tField('modified_by', 'reference auth_user', update=auth.user_id,\n\t\t\treadable=True, writable=False),\n\tformat='%(name)s')\n\n## email\ndb.define_table('device',\n\tField('name', 'string', requires=[IS_NOT_EMPTY()]),\n\tField('device_type', 'reference general_table', requires=[\n\tIS_IN_DB(db(db.general_table.config_type == db(db.config_group.name==myconf.get('default_type.dvc')).select(db.config_group.id)),\n\tdb.general_table.id, '%(name)s'),\n\tIS_NOT_EMPTY()]),\n\tField('model_id', 'reference model', requires=[ IS_IN_DB(db, db.model.id, '%(name)s'), IS_NOT_EMPTY() ]),\n\tField('os_type', 'reference general_table', requires=[\n\tIS_IN_DB(db(db.general_table.config_type == db(db.config_group.name==myconf.get('default_type.oss')).select(db.config_group.id)),\n\tdb.general_table.id, '%(name)s'),\n\tIS_NOT_EMPTY()]),\n\tField('cpu', 'string', requires=[IS_NOT_EMPTY()]),\n\tField('ram', 'string', requires=[IS_NOT_EMPTY()]),\n\tField('hard_disk', 'string', requires=[IS_NOT_EMPTY()]),\n\tField('drive', 'string'),\n\tField('screen_size', 'string'),\n\tField('is_active', 'boolean', default=True),\n\tField('created_on', 'datetime', default=request.now,\n\t\t\treadable=True, writable=False),\n\tField('created_by', 'reference auth_user', default=auth.user_id,\n\t\t\treadable=True, writable=False),\n\tField('modified_on', 'datetime', update=request.now,\n\t\t\treadable=True, writable=False),\n\tField('modified_by', 'reference auth_user', update=auth.user_id,\n\t\t\treadable=True, writable=False),\n\tformat='%(name)s')\n\n## default user root\nif db(db.auth_user).count() <1:\n\tdb.auth_group.bulk_insert([\n\t\tdict(role='Admin', description='System user'),\n\t\tdict(role='Manager', description='Manager'),\n\t\tdict(role='User', description='User')\n\t])\n\n\tdb.auth_user.bulk_insert([\n\t\tdict(\n\t\t\tfirst_name='System',\n\t\t\tlast_name='Admin',\n\t\t\temail='root@coca-cola.com.mm',\n\t\t\tpassword=db.auth_user.password.validate('C0ke@12345')[0]\n\t\t),\n\t\tdict(\n\t\t\tfirst_name='Nyein',\n\t\t\tlast_name='Chan',\n\t\t\temail='nyeinchan@coca-cola.com.mm',\n\t\t\tpassword=db.auth_user.password.validate('Basn4@C01')[0]\n\t\t)\n\t])\n\n\tauth.add_membership(user_id=1, group_id=1)\n\tauth.add_membership(user_id=2, group_id=1)\n\nif db(db.config_group).count() < 1:\n\tdb.config_group.bulk_insert([\n\t\tdict(name=myconf.get('default_type.acs')),\n\t\tdict(name=myconf.get('default_type.app')),\n\t\tdict(name=myconf.get('default_type.dpt')),\n\t\tdict(name=myconf.get('default_type.dvc')),\n\t\tdict(name=myconf.get('default_type.eml')),\n\t\tdict(name=myconf.get('default_type.loc')),\n\t\tdict(name=myconf.get('default_type.lnc')),\n\t\tdict(name=myconf.get('default_type.opt')),\n\t\tdict(name=myconf.get('default_type.pln')),\n\t\tdict(name=myconf.get('default_type.usr'))\n\t])\n"
p7
sS'snapshot'
p8
(dp9
S'exception'
p10
(dp11
S'__hash__'
p12
S"<method-wrapper '__hash__' of exceptions.TypeError object>"
p13
sS'__setattr__'
p14
S"<method-wrapper '__setattr__' of exceptions.TypeError object>"
p15
sS'__reduce_ex__'
p16
S'<built-in method __reduce_ex__ of exceptions.TypeError object>'
p17
sS'__getslice__'
p18
S"<method-wrapper '__getslice__' of exceptions.TypeError object>"
p19
sS'__getitem__'
p20
S"<method-wrapper '__getitem__' of exceptions.TypeError object>"
p21
sS'__setstate__'
p22
S'<built-in method __setstate__ of exceptions.TypeError object>'
p23
sS'args'
p24
S'("__call__() got an unexpected keyword argument \'rname\'",)'
p25
sS'__reduce__'
p26
S'<built-in method __reduce__ of exceptions.TypeError object>'
p27
sS'__str__'
p28
S"<method-wrapper '__str__' of exceptions.TypeError object>"
p29
sS'__format__'
p30
S'<built-in method __format__ of exceptions.TypeError object>'
p31
sS'__getattribute__'
p32
S"<method-wrapper '__getattribute__' of exceptions.TypeError object>"
p33
sS'__class__'
p34
S"<type 'exceptions.TypeError'>"
p35
sS'__unicode__'
p36
S'<built-in method __unicode__ of exceptions.TypeError object>'
p37
sS'__delattr__'
p38
S"<method-wrapper '__delattr__' of exceptions.TypeError object>"
p39
sS'__subclasshook__'
p40
S'<built-in method __subclasshook__ of type object>'
p41
sS'__repr__'
p42
S"<method-wrapper '__repr__' of exceptions.TypeError object>"
p43
sS'__dict__'
p44
S'{}'
p45
sS'__sizeof__'
p46
S'<built-in method __sizeof__ of exceptions.TypeError object>'
p47
sS'__doc__'
p48
S"'Inappropriate argument type.'"
p49
sS'__init__'
p50
S"<method-wrapper '__init__' of exceptions.TypeError object>"
p51
sS'__new__'
p52
S'<built-in method __new__ of type object>'
p53
ssS'evalue'
p54
S"__call__() got an unexpected keyword argument 'rname'"
p55
sS'request'
p56
cgluon.html
XML_unpickle
p57
(S's5b\x00\x00<div><table><tr><td style="font-weight:bold;vertical-align:top;">ajax</td><td style="vertical-align:top;">:</td><td><div>False</div></td></tr><tr><td style="font-weight:bold;vertical-align:top;">application</td><td style="vertical-align:top;">:</td><td><div>monitor</div></td></tr><tr><td style="font-weight:bold;vertical-align:top;">args</td><td style="vertical-align:top;">:</td><td><div><table></table></div></td></tr><tr><td style="font-weight:bold;vertical-align:top;">cid</td><td style="vertical-align:top;">:</td><td><div>None</div></td></tr><tr><td style="font-weight:bold;vertical-align:top;">client</td><td style="vertical-align:top;">:</td><td><div>127.0.0.1</div></td></tr><tr><td style="font-weight:bold;vertical-align:top;">controller</td><td style="vertical-align:top;">:</td><td><div>default</div></td></tr><tr><td style="font-weight:bold;vertical-align:top;">cookies</td><td style="vertical-align:top;">:</td><td><div><table><tr><td style="font-weight:bold;vertical-align:top;">session_id_admin</td><td style="vertical-align:top;">:</td><td><div>127.0.0.1-edee4b42-92de-4d2d-be7d-e3f4698fc431<table><tr><td style="font-weight:bold;vertical-align:top;">comment</td><td style="vertical-align:top;">:</td><td><div></div></td></tr><tr><td style="font-weight:bold;vertical-align:top;">domain</td><td style="vertical-align:top;">:</td><td><div></div></td></tr><tr><td style="font-weight:bold;vertical-align:top;">expires</td><td style="vertical-align:top;">:</td><td><div></div></td></tr><tr><td style="font-weight:bold;vertical-align:top;">httponly</td><td style="vertical-align:top;">:</td><td><div></div></td></tr><tr><td style="font-weight:bold;vertical-align:top;">max-age</td><td style="vertical-align:top;">:</td><td><div></div></td></tr><tr><td style="font-weight:bold;vertical-align:top;">path</td><td style="vertical-align:top;">:</td><td><div></div></td></tr><tr><td style="font-weight:bold;vertical-align:top;">secure</td><td style="vertical-align:top;">:</td><td><div></div></td></tr><tr><td style="font-weight:bold;vertical-align:top;">version</td><td style="vertical-align:top;">:</td><td><div></div></td></tr></table></div></td></tr><tr><td style="font-weight:bold;vertical-align:top;">session_id_invoice2py</td><td style="vertical-align:top;">:</td><td><div>127.0.0.1-1cd4a1fe-c276-4b0d-a50d-29c921e5f4a0<table><tr><td style="font-weight:bold;vertical-align:top;">comment</td><td style="vertical-align:top;">:</td><td><div></div></td></tr><tr><td style="font-weight:bold;vertical-align:top;">domain</td><td style="vertical-align:top;">:</td><td><div></div></td></tr><tr><td style="font-weight:bold;vertical-align:top;">expires</td><td style="vertical-align:top;">:</td><td><div></div></td></tr><tr><td style="font-weight:bold;vertical-align:top;">httponly</td><td style="vertical-align:top;">:</td><td><div></div></td></tr><tr><td style="font-weight:bold;vertical-align:top;">max-age</td><td style="vertical-align:top;">:</td><td><div></div></td></tr><tr><td style="font-weight:bold;vertical-align:top;">path</td><td style="vertical-align:top;">:</td><td><div></div></td></tr><tr><td style="font-weight:bold;vertical-align:top;">secure</td><td style="vertical-align:top;">:</td><td><div></div></td></tr><tr><td style="font-weight:bold;vertical-align:top;">version</td><td style="vertical-align:top;">:</td><td><div></div></td></tr></table></div></td></tr><tr><td style="font-weight:bold;vertical-align:top;">session_id_monitor</td><td style="vertical-align:top;">:</td><td><div>127.0.0.1-8ec03c36-625d-40ce-9804-437b7b3ae298<table><tr><td style="font-weight:bold;vertical-align:top;">comment</td><td style="vertical-align:top;">:</td><td><div></div></td></tr><tr><td style="font-weight:bold;vertical-align:top;">domain</td><td style="vertical-align:top;">:</td><td><div></div></td></tr><tr><td style="font-weight:bold;vertical-align:top;">expires</td><td style="vertical-align:top;">:</td><td><div></div></td></tr><tr><td style="font-weight:bold;vertical-align:top;">httponly</td><td style="vertical-align:top;">:</td><td><div></div></td></tr><tr><td style="font-weight:bold;vertical-align:top;">max-age</td><td style="vertical-align:top;">:</td><td><div></div></td></tr><tr><td style="font-weight:bold;vertical-align:top;">path</td><td style="vertical-align:top;">:</td><td><div></div></td></tr><tr><td style="font-weight:bold;vertical-align:top;">secure</td><td style="vertical-align:top;">:</td><td><div></div></td></tr><tr><td style="font-weight:bold;vertical-align:top;">version</td><td style="vertical-align:top;">:</td><td><div></div></td></tr></table></div></td></tr><tr><td style="font-weight:bold;vertical-align:top;">session_id_welcome</td><td style="vertical-align:top;">:</td><td><div>127.0.0.1-544438f6-1dec-40dd-82db-97a8cb601f99<table><tr><td style="font-weight:bold;vertical-align:top;">comment</td><td style="vertical-align:top;">:</td><td><div></div></td></tr><tr><td style="font-weight:bold;vertical-align:top;">domain</td><td style="vertical-align:top;">:</td><td><div></div></td></tr><tr><td style="font-weight:bold;vertical-align:top;">expires</td><td style="vertical-align:top;">:</td><td><div></div></td></tr><tr><td style="font-weight:bold;vertical-align:top;">httponly</td><td style="vertical-align:top;">:</td><td><div></div></td></tr><tr><td style="font-weight:bold;vertical-align:top;">max-age</td><td style="vertical-align:top;">:</td><td><div></div></td></tr><tr><td style="font-weight:bold;vertical-align:top;">path</td><td style="vertical-align:top;">:</td><td><div></div></td></tr><tr><td style="font-weight:bold;vertical-align:top;">secure</td><td style="vertical-align:top;">:</td><td><div></div></td></tr><tr><td style="font-weight:bold;vertical-align:top;">version</td><td style="vertical-align:top;">:</td><td><div></div></td></tr></table></div></td></tr></table></div></td></tr><tr><td style="font-weight:bold;vertical-align:top;">env</td><td style="vertical-align:top;">:</td><td><div><table><tr><td style="font-weight:bold;vertical-align:top;">HTTP_ACCEPT</td><td style="vertical-align:top;">:</td><td><div>text/html,application/xhtml+xml,application/xml;q=0.9,image/webp,*/*;q=0.8</div></td></tr><tr><td style="font-weight:bold;vertical-align:top;">HTTP_ACCEPT_ENCODING</td><td style="vertical-align:top;">:</td><td><div>gzip, deflate, sdch</div></td></tr><tr><td style="font-weight:bold;vertical-align:top;">HTTP_ACCEPT_LANGUAGE</td><td style="vertical-align:top;">:</td><td><div>en-US,en;q=0.8</div></td></tr><tr><td style="font-weight:bold;vertical-align:top;">HTTP_CACHE_CONTROL</td><td style="vertical-align:top;">:</td><td><div>max-age=0</div></td></tr><tr><td style="font-weight:bold;vertical-align:top;">HTTP_CONNECTION</td><td style="vertical-align:top;">:</td><td><div>keep-alive</div></td></tr><tr><td style="font-weight:bold;vertical-align:top;">HTTP_COOKIE</td><td style="vertical-align:top;">:</td><td><div>session_id_invoice2py=127.0.0.1-1cd4a1fe-c276-4b0d-a50d-29c921e5f4a0; session_id_welcome=127.0.0.1-544438f6-1dec-40dd-82db-97a8cb601f99; session_id_monitor=127.0.0.1-8ec03c36-625d-40ce-9804-437b7b3ae298; session_id_admin=127.0.0.1-edee4b42-92de-4d2d-be7d-e3f4698fc431</div></td></tr><tr><td style="font-weight:bold;vertical-align:top;">HTTP_HOST</td><td style="vertical-align:top;">:</td><td><div>localhost:8000</div></td></tr><tr><td style="font-weight:bold;vertical-align:top;">HTTP_REFERER</td><td style="vertical-align:top;">:</td><td><div>http://localhost:8000/monitor/default/device</div></td></tr><tr><td style="font-weight:bold;vertical-align:top;">HTTP_UPGRADE_INSECURE_REQUESTS</td><td style="vertical-align:top;">:</td><td><div>1</div></td></tr><tr><td style="font-weight:bold;vertical-align:top;">HTTP_USER_AGENT</td><td style="vertical-align:top;">:</td><td><div>Mozilla/5.0 (X11; Linux x86_64) AppleWebKit/537.36 (KHTML, like Gecko) Chrome/53.0.2785.116 Safari/537.36</div></td></tr><tr><td style="font-weight:bold;vertical-align:top;">PATH_INFO</td><td style="vertical-align:top;">:</td><td><div>/monitor/default/sim</div></td></tr><tr><td style="font-weight:bold;vertical-align:top;">QUERY_STRING</td><td style="vertical-align:top;">:</td><td><div></div></td></tr><tr><td style="font-weight:bold;vertical-align:top;">REMOTE_ADDR</td><td style="vertical-align:top;">:</td><td><div>127.0.0.1</div></td></tr><tr><td style="font-weight:bold;vertical-align:top;">REMOTE_PORT</td><td style="vertical-align:top;">:</td><td><div>48580</div></td></tr><tr><td style="font-weight:bold;vertical-align:top;">REQUEST_METHOD</td><td style="vertical-align:top;">:</td><td><div>GET</div></td></tr><tr><td style="font-weight:bold;vertical-align:top;">SCRIPT_NAME</td><td style="vertical-align:top;">:</td><td><div></div></td></tr><tr><td style="font-weight:bold;vertical-align:top;">SERVER_NAME</td><td style="vertical-align:top;">:</td><td><div>HTY-L-PC09DD2CU</div></td></tr><tr><td style="font-weight:bold;vertical-align:top;">SERVER_PORT</td><td style="vertical-align:top;">:</td><td><div>8000</div></td></tr><tr><td style="font-weight:bold;vertical-align:top;">SERVER_PROTOCOL</td><td style="vertical-align:top;">:</td><td><div>HTTP/1.1</div></td></tr><tr><td style="font-weight:bold;vertical-align:top;">SERVER_SOFTWARE</td><td style="vertical-align:top;">:</td><td><div>Rocket 1.2.6</div></td></tr><tr><td style="font-weight:bold;vertical-align:top;">app_folders</td><td style="vertical-align:top;">:</td><td><div>set([&#x27;/home/nyeinchan/web2py/applications/admin/&#x27;, &#x27;/home/nyeinchan/web2py/applications/monitor/&#x27;, &#x27;/home/nyeinchan/web2py/applications/welcome/&#x27;, &#x27;/home/nyeinchan/web2py/applications/invoice2py/&#x27;])</div></td></tr><tr><td style="font-weight:bold;vertical-align:top;">applications_parent</td><td style="vertical-align:top;">:</td><td><div>/home/nyeinchan/web2py</div></td></tr><tr><td style="font-weight:bold;vertical-align:top;">cmd_args</td><td style="vertical-align:top;">:</td><td><div><table></table></div></td></tr><tr><td style="font-weight:bold;vertical-align:top;">cmd_options</td><td style="vertical-align:top;">:</td><td><div>&lt;Values at 0x7fa6ec950680: {&#x27;verbose&#x27;: False, &#x27;ip&#x27;: &#x27;127.0.0.1&#x27;, &#x27;debuglevel&#x27;: 30, &#x27;with_scheduler&#x27;: False, &#x27;shutdown_timeout&#x27;: 5, &#x27;taskbar&#x27;: False, &#x27;with_coverage&#x27;: False, &#x27;pid_filename&#x27;: &#x27;httpserver.pid&#x27;, &#x27;maxthreads&#x27;: None, &#x27;softcron&#x27;: False, &#x27;server_name&#x27;: &#x27;HTY-L-PC09DD2CU&#x27;, &#x27;bpython&#x27;: False, &#x27;nogui&#x27;: False, &#x27;port&#x27;: 8000, &#x27;print_errors&#x27;: False, &#x27;extcron&#x27;: False, &#x27;runcron&#x27;: False, &#x27;run_system_tests&#x27;: False, &#x27;test&#x27;: None, &#x27;folder&#x27;: &#x27;/home/nyeinchan/web2py&#x27;, &#x27;config&#x27;: &#x27;&#x27;, &#x27;minthreads&#x27;: None, &#x27;shell&#x27;: None, &#x27;run&#x27;: &#x27;&#x27;, &#x27;log_filename&#x27;: &#x27;httpserver.log&#x27;, &#x27;profiler_dir&#x27;: None, &#x27;args&#x27;: [&#x27;&#x27;], &#x27;socket_timeout&#x27;: 5, &#x27;ssl_ca_certificate&#x27;: None, &#x27;scheduler&#x27;: None, &#x27;interfaces&#x27;: None, &#x27;ssl_private_key&#x27;: &#x27;&#x27;, &#x27;gae&#x27;: None, &#x27;password&#x27;: &#x27;******&#x27;, &#x27;request_queue_size&#x27;: 5, &#x27;ssl_certificate&#x27;: &#x27;&#x27;, &#x27;cronjob&#x27;: False, &#x27;numthreads&#x27;: None, &#x27;quiet&#x27;: False, &#x27;import_models&#x27;: False, &#x27;timeout&#x27;: 10, &#x27;plain&#x27;: False, &#x27;nobanner&#x27;: False}&gt;</div></td></tr><tr><td style="font-weight:bold;vertical-align:top;">db_sessions</td><td style="vertical-align:top;">:</td><td><div>set([])</div></td></tr><tr><td style="font-weight:bold;vertical-align:top;">debugging</td><td style="vertical-align:top;">:</td><td><div>False</div></td></tr><tr><td style="font-weight:bold;vertical-align:top;">gluon_parent</td><td style="vertical-align:top;">:</td><td><div>/home/nyeinchan/web2py</div></td></tr><tr><td style="font-weight:bold;vertical-align:top;">http_accept</td><td style="vertical-align:top;">:</td><td><div>text/html,application/xhtml+xml,application/xml;q=0.9,image/webp,*/*;q=0.8</div></td></tr><tr><td style="font-weight:bold;vertical-align:top;">http_accept_encoding</td><td style="vertical-align:top;">:</td><td><div>gzip, deflate, sdch</div></td></tr><tr><td style="font-weight:bold;vertical-align:top;">http_accept_language</td><td style="vertical-align:top;">:</td><td><div>en-US,en;q=0.8</div></td></tr><tr><td style="font-weight:bold;vertical-align:top;">http_cache_control</td><td style="vertical-align:top;">:</td><td><div>max-age=0</div></td></tr><tr><td style="font-weight:bold;vertical-align:top;">http_connection</td><td style="vertical-align:top;">:</td><td><div>keep-alive</div></td></tr><tr><td style="font-weight:bold;vertical-align:top;">http_cookie</td><td style="vertical-align:top;">:</td><td><div>session_id_invoice2py=127.0.0.1-1cd4a1fe-c276-4b0d-a50d-29c921e5f4a0; session_id_welcome=127.0.0.1-544438f6-1dec-40dd-82db-97a8cb601f99; session_id_monitor=127.0.0.1-8ec03c36-625d-40ce-9804-437b7b3ae298; session_id_admin=127.0.0.1-edee4b42-92de-4d2d-be7d-e3f4698fc431</div></td></tr><tr><td style="font-weight:bold;vertical-align:top;">http_host</td><td style="vertical-align:top;">:</td><td><div>localhost:8000</div></td></tr><tr><td style="font-weight:bold;vertical-align:top;">http_referer</td><td style="vertical-align:top;">:</td><td><div>http://localhost:8000/monitor/default/device</div></td></tr><tr><td style="font-weight:bold;vertical-align:top;">http_upgrade_insecure_requests</td><td style="vertical-align:top;">:</td><td><div>1</div></td></tr><tr><td style="font-weight:bold;vertical-align:top;">http_user_agent</td><td style="vertical-align:top;">:</td><td><div>Mozilla/5.0 (X11; Linux x86_64) AppleWebKit/537.36 (KHTML, like Gecko) Chrome/53.0.2785.116 Safari/537.36</div></td></tr><tr><td style="font-weight:bold;vertical-align:top;">is_jython</td><td style="vertical-align:top;">:</td><td><div>False</div></td></tr><tr><td style="font-weight:bold;vertical-align:top;">is_pypy</td><td style="vertical-align:top;">:</td><td><div>False</div></td></tr><tr><td style="font-weight:bold;vertical-align:top;">is_source</td><td style="vertical-align:top;">:</td><td><div>True</div></td></tr><tr><td style="font-weight:bold;vertical-align:top;">local_hosts</td><td style="vertical-align:top;">:</td><td><div><table><tr><td><div>HTY-L-PC09DD2CU</div></td></tr><tr><td><div>::1</div></td></tr><tr><td><div>127.0.1.1</div></td></tr><tr><td><div>::ffff:127.0.0.1</div></td></tr><tr><td><div>127.0.0.1</div></td></tr></table></div></td></tr><tr><td style="font-weight:bold;vertical-align:top;">path_info</td><td style="vertical-align:top;">:</td><td><div>/monitor/default/sim</div></td></tr><tr><td style="font-weight:bold;vertical-align:top;">query_string</td><td style="vertical-align:top;">:</td><td><div></div></td></tr><tr><td style="font-weight:bold;vertical-align:top;">remote_addr</td><td style="vertical-align:top;">:</td><td><div>127.0.0.1</div></td></tr><tr><td style="font-weight:bold;vertical-align:top;">remote_port</td><td style="vertical-align:top;">:</td><td><div>48580</div></td></tr><tr><td style="font-weight:bold;vertical-align:top;">request_method</td><td style="vertical-align:top;">:</td><td><div>GET</div></td></tr><tr><td style="font-weight:bold;vertical-align:top;">request_uri</td><td style="vertical-align:top;">:</td><td><div>/monitor/default/sim</div></td></tr><tr><td style="font-weight:bold;vertical-align:top;">script_name</td><td style="vertical-align:top;">:</td><td><div></div></td></tr><tr><td style="font-weight:bold;vertical-align:top;">server_name</td><td style="vertical-align:top;">:</td><td><div>HTY-L-PC09DD2CU</div></td></tr><tr><td style="font-weight:bold;vertical-align:top;">server_port</td><td style="vertical-align:top;">:</td><td><div>8000</div></td></tr><tr><td style="font-weight:bold;vertical-align:top;">server_protocol</td><td style="vertical-align:top;">:</td><td><div>HTTP/1.1</div></td></tr><tr><td style="font-weight:bold;vertical-align:top;">server_software</td><td style="vertical-align:top;">:</td><td><div>Rocket 1.2.6</div></td></tr><tr><td style="font-weight:bold;vertical-align:top;">web2py_path</td><td style="vertical-align:top;">:</td><td><div>/home/nyeinchan/web2py</div></td></tr><tr><td style="font-weight:bold;vertical-align:top;">web2py_version</td><td style="vertical-align:top;">:</td><td><div>2.14.6-stable+timestamp.2016.05.10.00.21.47</div></td></tr><tr><td style="font-weight:bold;vertical-align:top;">wsgi.errors</td><td style="vertical-align:top;">:</td><td><div>&lt;open file &#x27;&lt;stderr&gt;&#x27;, mode &#x27;w&#x27; at 0x7fa6f23ec1e0&gt;</div></td></tr><tr><td style="font-weight:bold;vertical-align:top;">wsgi.file_wrapper</td><td style="vertical-align:top;">:</td><td><div>&lt;class wsgiref.util.FileWrapper at 0x7fa6ec7d06d0&gt;</div></td></tr><tr><td style="font-weight:bold;vertical-align:top;">wsgi.input</td><td style="vertical-align:top;">:</td><td><div>&lt;socket._fileobject object at 0x7fa6ec88cc50&gt;</div></td></tr><tr><td style="font-weight:bold;vertical-align:top;">wsgi.multiprocess</td><td style="vertical-align:top;">:</td><td><div>False</div></td></tr><tr><td style="font-weight:bold;vertical-align:top;">wsgi.multithread</td><td style="vertical-align:top;">:</td><td><div>True</div></td></tr><tr><td style="font-weight:bold;vertical-align:top;">wsgi.run_once</td><td style="vertical-align:top;">:</td><td><div>False</div></td></tr><tr><td style="font-weight:bold;vertical-align:top;">wsgi.url_scheme</td><td style="vertical-align:top;">:</td><td><div>http</div></td></tr><tr><td style="font-weight:bold;vertical-align:top;">wsgi.version</td><td style="vertical-align:top;">:</td><td><div><table><tr><td><div>1</div></td></tr><tr><td><div>0</div></td></tr></table></div></td></tr><tr><td style="font-weight:bold;vertical-align:top;">wsgi_errors</td><td style="vertical-align:top;">:</td><td><div>&lt;open file &#x27;&lt;stderr&gt;&#x27;, mode &#x27;w&#x27; at 0x7fa6f23ec1e0&gt;</div></td></tr><tr><td style="font-weight:bold;vertical-align:top;">wsgi_file_wrapper</td><td style="vertical-align:top;">:</td><td><div>&lt;class wsgiref.util.FileWrapper at 0x7fa6ec7d06d0&gt;</div></td></tr><tr><td style="font-weight:bold;vertical-align:top;">wsgi_input</td><td style="vertical-align:top;">:</td><td><div>&lt;socket._fileobject object at 0x7fa6ec88cc50&gt;</div></td></tr><tr><td style="font-weight:bold;vertical-align:top;">wsgi_multiprocess</td><td style="vertical-align:top;">:</td><td><div>False</div></td></tr><tr><td style="font-weight:bold;vertical-align:top;">wsgi_multithread</td><td style="vertical-align:top;">:</td><td><div>True</div></td></tr><tr><td style="font-weight:bold;vertical-align:top;">wsgi_run_once</td><td style="vertical-align:top;">:</td><td><div>False</div></td></tr><tr><td style="font-weight:bold;vertical-align:top;">wsgi_url_scheme</td><td style="vertical-align:top;">:</td><td><div>http</div></td></tr><tr><td style="font-weight:bold;vertical-align:top;">wsgi_version</td><td style="vertical-align:top;">:</td><td><div><table><tr><td><div>1</div></td></tr><tr><td><div>0</div></td></tr></table></div></td></tr></table></div></td></tr><tr><td style="font-weight:bold;vertical-align:top;">extension</td><td style="vertical-align:top;">:</td><td><div>html</div></td></tr><tr><td style="font-weight:bold;vertical-align:top;">folder</td><td style="vertical-align:top;">:</td><td><div>/home/nyeinchan/web2py/applications/monitor/</div></td></tr><tr><td style="font-weight:bold;vertical-align:top;">function</td><td style="vertical-align:top;">:</td><td><div>sim</div></td></tr><tr><td style="font-weight:bold;vertical-align:top;">global_settings</td><td style="vertical-align:top;">:</td><td><div><table><tr><td style="font-weight:bold;vertical-align:top;">app_folders</td><td style="vertical-align:top;">:</td><td><div>set([&#x27;/home/nyeinchan/web2py/applications/admin/&#x27;, &#x27;/home/nyeinchan/web2py/applications/monitor/&#x27;, &#x27;/home/nyeinchan/web2py/applications/welcome/&#x27;, &#x27;/home/nyeinchan/web2py/applications/invoice2py/&#x27;])</div></td></tr><tr><td style="font-weight:bold;vertical-align:top;">applications_parent</td><td style="vertical-align:top;">:</td><td><div>/home/nyeinchan/web2py</div></td></tr><tr><td style="font-weight:bold;vertical-align:top;">cmd_args</td><td style="vertical-align:top;">:</td><td><div><table></table></div></td></tr><tr><td style="font-weight:bold;vertical-align:top;">cmd_options</td><td style="vertical-align:top;">:</td><td><div>&lt;Values at 0x7fa6ec950680: {&#x27;verbose&#x27;: False, &#x27;ip&#x27;: &#x27;127.0.0.1&#x27;, &#x27;debuglevel&#x27;: 30, &#x27;with_scheduler&#x27;: False, &#x27;shutdown_timeout&#x27;: 5, &#x27;taskbar&#x27;: False, &#x27;with_coverage&#x27;: False, &#x27;pid_filename&#x27;: &#x27;httpserver.pid&#x27;, &#x27;maxthreads&#x27;: None, &#x27;softcron&#x27;: False, &#x27;server_name&#x27;: &#x27;HTY-L-PC09DD2CU&#x27;, &#x27;bpython&#x27;: False, &#x27;nogui&#x27;: False, &#x27;port&#x27;: 8000, &#x27;print_errors&#x27;: False, &#x27;extcron&#x27;: False, &#x27;runcron&#x27;: False, &#x27;run_system_tests&#x27;: False, &#x27;test&#x27;: None, &#x27;folder&#x27;: &#x27;/home/nyeinchan/web2py&#x27;, &#x27;config&#x27;: &#x27;&#x27;, &#x27;minthreads&#x27;: None, &#x27;shell&#x27;: None, &#x27;run&#x27;: &#x27;&#x27;, &#x27;log_filename&#x27;: &#x27;httpserver.log&#x27;, &#x27;profiler_dir&#x27;: None, &#x27;args&#x27;: [&#x27;&#x27;], &#x27;socket_timeout&#x27;: 5, &#x27;ssl_ca_certificate&#x27;: None, &#x27;scheduler&#x27;: None, &#x27;interfaces&#x27;: None, &#x27;ssl_private_key&#x27;: &#x27;&#x27;, &#x27;gae&#x27;: None, &#x27;password&#x27;: &#x27;******&#x27;, &#x27;request_queue_size&#x27;: 5, &#x27;ssl_certificate&#x27;: &#x27;&#x27;, &#x27;cronjob&#x27;: False, &#x27;numthreads&#x27;: None, &#x27;quiet&#x27;: False, &#x27;import_models&#x27;: False, &#x27;timeout&#x27;: 10, &#x27;plain&#x27;: False, &#x27;nobanner&#x27;: False}&gt;</div></td></tr><tr><td style="font-weight:bold;vertical-align:top;">db_sessions</td><td style="vertical-align:top;">:</td><td><div>set([])</div></td></tr><tr><td style="font-weight:bold;vertical-align:top;">debugging</td><td style="vertical-align:top;">:</td><td><div>False</div></td></tr><tr><td style="font-weight:bold;vertical-align:top;">gluon_parent</td><td style="vertical-align:top;">:</td><td><div>/home/nyeinchan/web2py</div></td></tr><tr><td style="font-weight:bold;vertical-align:top;">is_jython</td><td style="vertical-align:top;">:</td><td><div>False</div></td></tr><tr><td style="font-weight:bold;vertical-align:top;">is_pypy</td><td style="vertical-align:top;">:</td><td><div>False</div></td></tr><tr><td style="font-weight:bold;vertical-align:top;">is_source</td><td style="vertical-align:top;">:</td><td><div>True</div></td></tr><tr><td style="font-weight:bold;vertical-align:top;">local_hosts</td><td style="vertical-align:top;">:</td><td><div><table><tr><td><div>HTY-L-PC09DD2CU</div></td></tr><tr><td><div>::1</div></td></tr><tr><td><div>127.0.1.1</div></td></tr><tr><td><div>::ffff:127.0.0.1</div></td></tr><tr><td><div>127.0.0.1</div></td></tr></table></div></td></tr><tr><td style="font-weight:bold;vertical-align:top;">web2py_version</td><td style="vertical-align:top;">:</td><td><div>2.14.6-stable+timestamp.2016.05.10.00.21.47</div></td></tr></table></div></td></tr><tr><td style="font-weight:bold;vertical-align:top;">is_https</td><td style="vertical-align:top;">:</td><td><div>False</div></td></tr><tr><td style="font-weight:bold;vertical-align:top;">is_local</td><td style="vertical-align:top;">:</td><td><div>True</div></td></tr><tr><td style="font-weight:bold;vertical-align:top;">is_restful</td><td style="vertical-align:top;">:</td><td><div>False</div></td></tr><tr><td style="font-weight:bold;vertical-align:top;">is_scheduler</td><td style="vertical-align:top;">:</td><td><div>False</div></td></tr><tr><td style="font-weight:bold;vertical-align:top;">is_shell</td><td style="vertical-align:top;">:</td><td><div>False</div></td></tr><tr><td style="font-weight:bold;vertical-align:top;">now</td><td style="vertical-align:top;">:</td><td><div>datetime.datetime(2016, 9, 22, 15, 57, 42, 43119)</div></td></tr><tr><td style="font-weight:bold;vertical-align:top;">raw_args</td><td style="vertical-align:top;">:</td><td><div></div></td></tr><tr><td style="font-weight:bold;vertical-align:top;">raw_extension</td><td style="vertical-align:top;">:</td><td><div>None</div></td></tr><tr><td style="font-weight:bold;vertical-align:top;">url</td><td style="vertical-align:top;">:</td><td><div>/monitor/default/sim</div></td></tr><tr><td style="font-weight:bold;vertical-align:top;">utcnow</td><td style="vertical-align:top;">:</td><td><div>datetime.datetime(2016, 9, 22, 9, 27, 42, 43136)</div></td></tr><tr><td style="font-weight:bold;vertical-align:top;">wsgi</td><td style="vertical-align:top;">:</td><td><div>&lt;gluon.main.LazyWSGI object at 0x7fa6c9f47710&gt;</div></td></tr></table></div>'
tRp58
sS'frames'
p59
(lp60
(dp61
S'file'
p62
S'/home/nyeinchan/web2py/gluon/restricted.py'
p63
sS'dump'
p64
(dp65
S'environment'
p66
S"{'A': <class 'gluon.html.A'>, 'ANY_OF': <class 'gluon.validators.ANY_OF'>, 'ASSIGNJS': <function ASSIGNJS>, 'AppConfig': <function AppConfig>, 'Auth': <class 'gluon.tools.Auth'>, 'B': <class 'gluon.html.B'>, 'BEAUTIFY': <class 'gluon.html.BEAUTIFY'>, 'BODY': <class 'gluon.html.BODY'>, 'BR': <class 'gluon.html.BR'>, 'BUTTON': <class 'gluon.html.BUTTON'>, ...}"
p67
sS'ccode'
p68
S'<code object <module> at 0x7fa6ec88c630, file "/.../applications/monitor/models/dbsetup.py", line 1>'
p69
ssS'lnum'
p70
I227
sS'lines'
p71
(dp72
I224
S'            ccode = code'
p73
sI225
S'        else:'
p74
sI226
S'            ccode = compile2(code, layer)'
p75
sI227
S'        exec ccode in environment'
p76
sI228
S'    except HTTP:'
p77
sI229
S'        raise'
p78
sI230
S'    except RestrictedError:'
p79
sI231
S'        # do not encapsulate (obfuscate) the original RestrictedError'
p80
sI222
S'    try:'
p81
sI223
S'        if isinstance(code, types.CodeType):'
p82
ssS'call'
p83
S'(code="from datetime import datetime\\nfrom gluon.contrib...\\n\\t\\tdict(name=myconf.get(\'default_type.usr\'))\\n\\t])\\n", environment={\'A\': <class \'gluon.html.A\'>, \'ANY_OF\': <class \'gluon.validators.ANY_OF\'>, \'ASSIGNJS\': <function ASSIGNJS>, \'AppConfig\': <function AppConfig>, \'Auth\': <class \'gluon.tools.Auth\'>, \'B\': <class \'gluon.html.B\'>, \'BEAUTIFY\': <class \'gluon.html.BEAUTIFY\'>, \'BODY\': <class \'gluon.html.BODY\'>, \'BR\': <class \'gluon.html.BR\'>, \'BUTTON\': <class \'gluon.html.BUTTON\'>, ...}, layer=\'/home/nyeinchan/web2py/applications/monitor/models/dbsetup.py\')'
p84
sS'func'
p85
S'restricted'
p86
sa(dp87
g62
S'/home/nyeinchan/web2py/applications/monitor/models/dbsetup.py'
p88
sg64
(dp89
S'rname'
p90
S'undefined'
p91
sS'db.config_group.id'
p92
S'<pydal.objects.Field object>'
p93
sS'myconf'
p94
S"{'forms': {'formstyle': 'bootstrap3_stacked', 's...nse', 'pln': 'Plan', 'oss': 'OS', 'usr': 'User'}}"
p95
sS').select'
p96
g91
sS'db'
p97
S'<DAL uri="mysql:******@localhost/devicemonitor">'
p98
sS'db.config_group'
p99
S'<Table config_group (id, name, is_active)>'
p100
sS'IS_IN_DB'
p101
S"<class 'gluon.validators.IS_IN_DB'>"
p102
sS'db.general_table.id'
p103
S'<pydal.objects.Field object>'
p104
sS'myconf.get'
p105
S"<bound method AppConfigDict.get of {'forms': {'f...se', 'pln': 'Plan', 'oss': 'OS', 'usr': 'User'}}>"
p106
sS'db.general_table'
p107
S'<Table general_table (id, code, name, config_typ...reated_on, created_by, modified_on, modified_by)>'
p108
sS'db.config_group.name'
p109
S'<pydal.objects.Field object>'
p110
sS'db.general_table.config_type'
p111
S'<pydal.objects.Field object>'
p112
ssg70
I121
sg71
(dp113
I116
S''
sI117
S'##sim'
p114
sI118
S"db.define_table('sim',"
p115
sI119
S"\tField('sim_number', 'string', requires=[IS_NOT_EMPTY()]),"
p116
sI120
S"\tField('brand_type', 'reference general_table', requires=["
p117
sI121
S"\tIS_IN_DB(db(db.general_table.config_type == db(db.config_group.name==myconf.get('default_type.opt')).select(db.config_group.id), rname='brand'),"
p118
sI122
S"\tdb.general_table.id, '%(name)s'),"
p119
sI123
S'\tIS_NOT_EMPTY()]),'
p120
sI124
S"\tField('plan_type', 'reference general_table', requires=["
p121
sI125
S"\tIS_IN_DB(db(db.general_table.config_type == db(db.config_group.name==myconf.get('default_type.pln')).select(db.config_group.id), rname='plan'),"
p122
ssg83
S'()'
p123
sg85
S'<module>'
p124
sasS'pyver'
p125
S'Python 2.7.12: /usr/bin/python (prefix: /usr)'
p126
sS'session'
p127
g57
(S's\xee\x08\x00\x00<div><table><tr><td style="font-weight:bold;vertical-align:top;">auth</td><td style="vertical-align:top;">:</td><td><div><table><tr><td style="font-weight:bold;vertical-align:top;">expiration</td><td style="vertical-align:top;">:</td><td><div>3600</div></td></tr><tr><td style="font-weight:bold;vertical-align:top;">hmac_key</td><td style="vertical-align:top;">:</td><td><div>4a89b5b7-4334-4ca4-95de-5a683643d1df</div></td></tr><tr><td style="font-weight:bold;vertical-align:top;">last_visit</td><td style="vertical-align:top;">:</td><td><div>datetime.datetime(2016, 9, 22, 15, 57, 42, 43119)</div></td></tr><tr><td style="font-weight:bold;vertical-align:top;">remember_me</td><td style="vertical-align:top;">:</td><td><div>False</div></td></tr><tr><td style="font-weight:bold;vertical-align:top;">user</td><td style="vertical-align:top;">:</td><td><div><table><tr><td style="font-weight:bold;vertical-align:top;">email</td><td style="vertical-align:top;">:</td><td><div>nyeinchan@coca-cola.com.mm</div></td></tr><tr><td style="font-weight:bold;vertical-align:top;">first_name</td><td style="vertical-align:top;">:</td><td><div>Nyein</div></td></tr><tr><td style="font-weight:bold;vertical-align:top;">id</td><td style="vertical-align:top;">:</td><td><div>2L</div></td></tr><tr><td style="font-weight:bold;vertical-align:top;">last_name</td><td style="vertical-align:top;">:</td><td><div>Chan</div></td></tr><tr><td style="font-weight:bold;vertical-align:top;">registration_id</td><td style="vertical-align:top;">:</td><td><div></div></td></tr><tr><td style="font-weight:bold;vertical-align:top;">registration_key</td><td style="vertical-align:top;">:</td><td><div></div></td></tr><tr><td style="font-weight:bold;vertical-align:top;">reset_password_key</td><td style="vertical-align:top;">:</td><td><div></div></td></tr></table></div></td></tr><tr><td style="font-weight:bold;vertical-align:top;">user_groups</td><td style="vertical-align:top;">:</td><td><div><table><tr><td style="font-weight:bold;vertical-align:top;">1</td><td style="vertical-align:top;">:</td><td><div>Admin</div></td></tr></table></div></td></tr></table></div></td></tr><tr><td style="font-weight:bold;vertical-align:top;">flash</td><td style="vertical-align:top;">:</td><td><div>None</div></td></tr></table></div>'
tRp128
sS'etype'
p129
S"<type 'exceptions.TypeError'>"
p130
sS'date'
p131
S'Thu Sep 22 15:57:42 2016'
p132
sS'response'
p133
g57
(S'sg\x17\x00\x00<div><table><tr><td style="font-weight:bold;vertical-align:top;">body</td><td style="vertical-align:top;">:</td><td><div>&lt;cStringIO.StringO object at 0x7fa6e8295030&gt;</div></td></tr><tr><td style="font-weight:bold;vertical-align:top;">cookies</td><td style="vertical-align:top;">:</td><td><div><table><tr><td style="font-weight:bold;vertical-align:top;">session_id_monitor</td><td style="vertical-align:top;">:</td><td><div>127.0.0.1-8ec03c36-625d-40ce-9804-437b7b3ae298<table><tr><td style="font-weight:bold;vertical-align:top;">comment</td><td style="vertical-align:top;">:</td><td><div></div></td></tr><tr><td style="font-weight:bold;vertical-align:top;">domain</td><td style="vertical-align:top;">:</td><td><div></div></td></tr><tr><td style="font-weight:bold;vertical-align:top;">expires</td><td style="vertical-align:top;">:</td><td><div></div></td></tr><tr><td style="font-weight:bold;vertical-align:top;">httponly</td><td style="vertical-align:top;">:</td><td><div></div></td></tr><tr><td style="font-weight:bold;vertical-align:top;">max-age</td><td style="vertical-align:top;">:</td><td><div></div></td></tr><tr><td style="font-weight:bold;vertical-align:top;">path</td><td style="vertical-align:top;">:</td><td><div>/</div></td></tr><tr><td style="font-weight:bold;vertical-align:top;">secure</td><td style="vertical-align:top;">:</td><td><div></div></td></tr><tr><td style="font-weight:bold;vertical-align:top;">version</td><td style="vertical-align:top;">:</td><td><div></div></td></tr></table></div></td></tr></table></div></td></tr><tr><td style="font-weight:bold;vertical-align:top;">delimiters</td><td style="vertical-align:top;">:</td><td><div><table><tr><td><div>{{</div></td></tr><tr><td><div>}}</div></td></tr></table></div></td></tr><tr><td style="font-weight:bold;vertical-align:top;">files</td><td style="vertical-align:top;">:</td><td><div><table></table></div></td></tr><tr><td style="font-weight:bold;vertical-align:top;">flash</td><td style="vertical-align:top;">:</td><td><div></div></td></tr><tr><td style="font-weight:bold;vertical-align:top;">form_label_separator</td><td style="vertical-align:top;">:</td><td><div></div></td></tr><tr><td style="font-weight:bold;vertical-align:top;">formstyle</td><td style="vertical-align:top;">:</td><td><div>bootstrap3_stacked</div></td></tr><tr><td style="font-weight:bold;vertical-align:top;">generic_patterns</td><td style="vertical-align:top;">:</td><td><div><table><tr><td><div>*</div></td></tr></table></div></td></tr><tr><td style="font-weight:bold;vertical-align:top;">headers</td><td style="vertical-align:top;">:</td><td><div><table><tr><td style="font-weight:bold;vertical-align:top;">X-Powered-By</td><td style="vertical-align:top;">:</td><td><div>web2py</div></td></tr></table></div></td></tr><tr><td style="font-weight:bold;vertical-align:top;">menu</td><td style="vertical-align:top;">:</td><td><div><table></table></div></td></tr><tr><td style="font-weight:bold;vertical-align:top;">meta</td><td style="vertical-align:top;">:</td><td><div><table></table></div></td></tr><tr><td style="font-weight:bold;vertical-align:top;">models_to_run</td><td style="vertical-align:top;">:</td><td><div><table><tr><td><div>^\\w+\\.py$</div></td></tr><tr><td><div>^default/\\w+\\.py$</div></td></tr><tr><td><div>^default/sim/\\w+\\.py$</div></td></tr></table></div></td></tr><tr><td style="font-weight:bold;vertical-align:top;">postprocessing</td><td style="vertical-align:top;">:</td><td><div><table></table></div></td></tr><tr><td style="font-weight:bold;vertical-align:top;">session_client</td><td style="vertical-align:top;">:</td><td><div>127.0.0.1</div></td></tr><tr><td style="font-weight:bold;vertical-align:top;">session_cookie_compression_level</td><td style="vertical-align:top;">:</td><td><div>None</div></td></tr><tr><td style="font-weight:bold;vertical-align:top;">session_cookie_expires</td><td style="vertical-align:top;">:</td><td><div>None</div></td></tr><tr><td style="font-weight:bold;vertical-align:top;">session_data_name</td><td style="vertical-align:top;">:</td><td><div>session_data_monitor</div></td></tr><tr><td style="font-weight:bold;vertical-align:top;">session_file</td><td style="vertical-align:top;">:</td><td><div>&lt;open file &#x27;/home/nyeinchan/web2py/applications/monitor/sessions/05d/192/127.0.0.1-8ec03c36-625d-40ce-9804-437b7b3ae298&#x27;, mode &#x27;rb+&#x27; at 0x7fa6e81a7a50&gt;</div></td></tr><tr><td style="font-weight:bold;vertical-align:top;">session_filename</td><td style="vertical-align:top;">:</td><td><div>/home/nyeinchan/web2py/applications/monitor/sessions/127.0.0.1-8ec03c36-625d-40ce-9804-437b7b3ae298</div></td></tr><tr><td style="font-weight:bold;vertical-align:top;">session_hash</td><td style="vertical-align:top;">:</td><td><div>b72ed9e2b130cbcdff15100edf7e3a59</div></td></tr><tr><td style="font-weight:bold;vertical-align:top;">session_id</td><td style="vertical-align:top;">:</td><td><div>127.0.0.1-8ec03c36-625d-40ce-9804-437b7b3ae298</div></td></tr><tr><td style="font-weight:bold;vertical-align:top;">session_id_name</td><td style="vertical-align:top;">:</td><td><div>session_id_monitor</div></td></tr><tr><td style="font-weight:bold;vertical-align:top;">session_locked</td><td style="vertical-align:top;">:</td><td><div>True</div></td></tr><tr><td style="font-weight:bold;vertical-align:top;">session_masterapp</td><td style="vertical-align:top;">:</td><td><div>monitor</div></td></tr><tr><td style="font-weight:bold;vertical-align:top;">session_new</td><td style="vertical-align:top;">:</td><td><div>False</div></td></tr><tr><td style="font-weight:bold;vertical-align:top;">session_storage_type</td><td style="vertical-align:top;">:</td><td><div>file</div></td></tr><tr><td style="font-weight:bold;vertical-align:top;">status</td><td style="vertical-align:top;">:</td><td><div>200</div></td></tr><tr><td style="font-weight:bold;vertical-align:top;">view</td><td style="vertical-align:top;">:</td><td><div>default/sim.html</div></td></tr></table></div>'
tRp134
sS'locals'
p135
(dp136
S'Service'
p137
S"<class 'gluon.tools.Service'>"
p138
sS'OBJECT'
p139
S"<class 'gluon.html.OBJECT'>"
p140
sS'SQLDB'
p141
S"<class 'pydal.base.DAL'>"
p142
sg127
S"<Storage {'auth': <Storage {'remember_me': False...ature=76a92b35de5f42a4898ada68c1db4a4e6eb502b6'}>"
p143
sS'LINK'
p144
S"<class 'gluon.html.LINK'>"
p145
sS'BR'
p146
S"<class 'gluon.html.BR'>"
p147
sS'local_import'
p148
S'<function <lambda>>'
p149
sS'OPTGROUP'
p150
S"<class 'gluon.html.OPTGROUP'>"
p151
sS'LI'
p152
S"<class 'gluon.html.LI'>"
p153
sS'PRE'
p154
S"<class 'gluon.html.PRE'>"
p155
sS'IS_INT_IN_RANGE'
p156
S"<class 'gluon.validators.IS_INT_IN_RANGE'>"
p157
sS'IS_LOWER'
p158
S"<class 'gluon.validators.IS_LOWER'>"
p159
sS'IS_STRONG'
p160
S"<class 'gluon.validators.IS_STRONG'>"
p161
sS'cache'
p162
S'<gluon.cache.Cache object>'
p163
sS'IS_IN_DB'
p164
S"<class 'gluon.validators.IS_IN_DB'>"
p165
sS'TAG'
p166
S'<gluon.html.__TAG__ object>'
p167
sS'SQLField'
p168
S"<class 'pydal.objects.Field'>"
p169
sS'mail'
p170
S'<gluon.tools.Mail object>'
p171
sS'BODY'
p172
S"<class 'gluon.html.BODY'>"
p173
sS'IS_DATE_IN_RANGE'
p174
S"<class 'gluon.validators.IS_DATE_IN_RANGE'>"
p175
sS'TH'
p176
S"<class 'gluon.html.TH'>"
p177
sS'URL'
p178
S'<function URL>'
p179
sS'__file__'
p180
S"'/home/nyeinchan/web2py/applications/monitor/models/dbsetup.py'"
p181
sS'db'
p182
S'<DAL uri="mysql:******@localhost/devicemonitor">'
p183
sS'auth'
p184
S'<gluon.tools.Auth object>'
p185
sS'P'
S"<class 'gluon.html.P'>"
p186
sS'TFOOT'
p187
S"<class 'gluon.html.TFOOT'>"
p188
sS'XHTML'
p189
S"<class 'gluon.html.XHTML'>"
p190
sS'datetime'
p191
S"<type 'datetime.datetime'>"
p192
sS'ON'
p193
S'True'
p194
sS'OL'
p195
S"<class 'gluon.html.OL'>"
p196
sS'TEXTAREA'
p197
S"<class 'gluon.html.TEXTAREA'>"
p198
sS'MENU'
p199
S"<class 'gluon.html.MENU'>"
p200
sS'LOAD'
p201
S'<function LOAD>'
p202
sS'CODE'
p203
S"<class 'gluon.html.CODE'>"
p204
sS'HTTP'
p205
S"<class 'gluon.http.HTTP'>"
p206
sS'HR'
p207
S"<class 'gluon.html.HR'>"
p208
sS'IS_DATETIME'
p209
S"<class 'gluon.validators.IS_DATETIME'>"
p210
sS'HEAD'
p211
S"<class 'gluon.html.HEAD'>"
p212
sS'LABEL'
p213
S"<class 'gluon.html.LABEL'>"
p214
sS'CLEANUP'
p215
S"<class 'gluon.validators.CLEANUP'>"
p216
sS'plugins'
p217
S'<gluon.tools.PluginManager object>'
p218
sS'SELECT'
p219
S"<class 'gluon.html.SELECT'>"
p220
sS'CENTER'
p221
S"<class 'gluon.html.CENTER'>"
p222
sS'Crud'
p223
S"<class 'gluon.tools.Crud'>"
p224
sS'Auth'
p225
S"<class 'gluon.tools.Auth'>"
p226
sS'__builtins__'
p227
S"{'ArithmeticError': <type 'exceptions.ArithmeticError'>, 'AssertionError': <type 'exceptions.AssertionError'>, 'AttributeError': <type 'exceptions.AttributeError'>, 'BaseException': <type 'exceptions.BaseException'>, 'BufferError': <type 'exceptions.BufferError'>, 'BytesWarning': <type 'exceptions.BytesWarning'>, 'DeprecationWarning': <type 'exceptions.DeprecationWarning'>, 'EOFError': <type 'exceptions.EOFError'>, 'Ellipsis': Ellipsis, 'EnvironmentError': <type 'exceptions.EnvironmentError'>, ...}"
p228
sS'HTML'
p229
S"<class 'gluon.html.HTML'>"
p230
sS'SQLFORM'
p231
S"<class 'gluon.sqlhtml.SQLFORM'>"
p232
sS'EM'
p233
S"<class 'gluon.html.EM'>"
p234
sS'redirect'
p235
S'<function redirect>'
p236
sS'FIELDSET'
p237
S"<class 'gluon.html.FIELDSET'>"
p238
sS'IS_EQUAL_TO'
p239
S"<class 'gluon.validators.IS_EQUAL_TO'>"
p240
sS'embed64'
p241
S'<function embed64>'
p242
sS'IS_LIST_OF'
p243
S"<class 'gluon.validators.IS_LIST_OF'>"
p244
sS'__name__'
p245
S"'__restricted__'"
p246
sS'EMBED'
p247
S"<class 'gluon.html.EMBED'>"
p248
sS'FORM'
p249
S"<class 'gluon.html.FORM'>"
p250
sS'myconf'
p251
S"{'forms': {'formstyle': 'bootstrap3_stacked', 's...nse', 'pln': 'Plan', 'oss': 'OS', 'usr': 'User'}}"
p252
sS'H2'
p253
S"<class 'gluon.html.H2'>"
p254
sS'H3'
p255
S"<class 'gluon.html.H3'>"
p256
sS'AppConfig'
p257
S'<function AppConfig>'
p258
sS'H1'
p259
S"<class 'gluon.html.H1'>"
p260
sS'H6'
p261
S"<class 'gluon.html.H6'>"
p262
sS'H4'
p263
S"<class 'gluon.html.H4'>"
p264
sS'H5'
p265
S"<class 'gluon.html.H5'>"
p266
sS'UL'
p267
S"<class 'gluon.html.UL'>"
p268
sS'IS_UPPER'
p269
S"<class 'gluon.validators.IS_UPPER'>"
p270
sS'xmlescape'
p271
S'<function xmlescape>'
p272
sS'IS_TIME'
p273
S"<class 'gluon.validators.IS_TIME'>"
p274
sS'OPTION'
p275
S"<class 'gluon.html.OPTION'>"
p276
sS'TITLE'
p277
S"<class 'gluon.html.TITLE'>"
p278
sS'CRYPT'
p279
S"<class 'gluon.validators.CRYPT'>"
p280
sS'IS_EMPTY_OR'
p281
S"<class 'gluon.validators.IS_EMPTY_OR'>"
p282
sS'MARKMIN'
p283
S"<class 'gluon.html.MARKMIN'>"
p284
sS'INPUT'
p285
S"<class 'gluon.html.INPUT'>"
p286
sS'STRONG'
p287
S"<class 'gluon.html.STRONG'>"
p288
sS'COL'
p289
S"<class 'gluon.html.COL'>"
p290
sS'service'
p291
S'<gluon.tools.Service object>'
p292
sS'SCRIPT'
p293
S"<class 'gluon.html.SCRIPT'>"
p294
sS'TABLE'
p295
S"<class 'gluon.html.TABLE'>"
p296
sS'IS_IPV4'
p297
S"<class 'gluon.validators.IS_IPV4'>"
p298
sS'IS_LENGTH'
p299
S"<class 'gluon.validators.IS_LENGTH'>"
p300
sS'IS_IPV6'
p301
S"<class 'gluon.validators.IS_IPV6'>"
p302
sS'XML'
p303
S"<class 'gluon.html.XML'>"
p304
sS'B'
S"<class 'gluon.html.B'>"
p305
sS'IMG'
p306
S"<class 'gluon.html.IMG'>"
p307
sS'SQLTABLE'
p308
S"<class 'gluon.sqlhtml.SQLTABLE'>"
p309
sS'IS_MATCH'
p310
S"<class 'gluon.validators.IS_MATCH'>"
p311
sS'IS_ALPHANUMERIC'
p312
S"<class 'gluon.validators.IS_ALPHANUMERIC'>"
p313
sS'SPAN'
p314
S"<class 'gluon.html.SPAN'>"
p315
sS'IS_JSON'
p316
S"<class 'gluon.validators.IS_JSON'>"
p317
sS'IS_IPADDRESS'
p318
S"<class 'gluon.validators.IS_IPADDRESS'>"
p319
sS'IS_SLUG'
p320
S"<class 'gluon.validators.IS_SLUG'>"
p321
sS'BEAUTIFY'
p322
S"<class 'gluon.html.BEAUTIFY'>"
p323
sS'META'
p324
S"<class 'gluon.html.META'>"
p325
sS'BUTTON'
p326
S"<class 'gluon.html.BUTTON'>"
p327
sS'IS_DATE'
p328
S"<class 'gluon.validators.IS_DATE'>"
p329
sS'IS_EMAIL'
p330
S"<class 'gluon.validators.IS_EMAIL'>"
p331
sS'IS_NOT_EMPTY'
p332
S"<class 'gluon.validators.IS_NOT_EMPTY'>"
p333
sS'IS_FLOAT_IN_RANGE'
p334
S"<class 'gluon.validators.IS_FLOAT_IN_RANGE'>"
p335
sS'TBODY'
p336
S"<class 'gluon.html.TBODY'>"
p337
sS'CAT'
p338
S"<class 'gluon.html.CAT'>"
p339
sS'Field'
p340
S"<class 'pydal.objects.Field'>"
p341
sS'IS_LIST_OF_EMAILS'
p342
S"<class 'gluon.validators.IS_LIST_OF_EMAILS'>"
p343
sS'DIV'
p344
S"<class 'gluon.html.DIV'>"
p345
sS'LEGEND'
p346
S"<class 'gluon.html.LEGEND'>"
p347
sS'COLGROUP'
p348
S"<class 'gluon.html.COLGROUP'>"
p349
sS'DAL'
p350
S"<class 'pydal.base.DAL'>"
p351
sS'ASSIGNJS'
p352
S'<function ASSIGNJS>'
p353
sS'TR'
p354
S"<class 'gluon.html.TR'>"
p355
sS'__package__'
p356
S'None'
p357
sS'IFRAME'
p358
S"<class 'gluon.html.IFRAME'>"
p359
sS'TD'
p360
S"<class 'gluon.html.TD'>"
p361
sS'PluginManager'
p362
S"<class 'gluon.tools.PluginManager'>"
p363
sS'IS_URL'
p364
S"<class 'gluon.validators.IS_URL'>"
p365
sS'A'
S"<class 'gluon.html.A'>"
p366
sS'STYLE'
p367
S"<class 'gluon.html.STYLE'>"
p368
sS'IS_DATETIME_IN_RANGE'
p369
S"<class 'gluon.validators.IS_DATETIME_IN_RANGE'>"
p370
sS'IS_IMAGE'
p371
S"<class 'gluon.validators.IS_IMAGE'>"
p372
sS'I'
S"<class 'gluon.html.I'>"
p373
sS'crud'
p374
S'<gluon.tools.Crud object>'
p375
sS'IS_NOT_IN_DB'
p376
S"<class 'gluon.validators.IS_NOT_IN_DB'>"
p377
sg133
S"<Storage {'body': <cStringIO.StringO object at 0... at 0x7fa6c9b66500>, 'view': 'default/sim.html'}>"
p378
sS'THEAD'
p379
S"<class 'gluon.html.THEAD'>"
p380
sS'ANY_OF'
p381
S"<class 'gluon.validators.ANY_OF'>"
p382
sS'IS_NULL_OR'
p383
S"<class 'gluon.validators.IS_EMPTY_OR'>"
p384
sg56
S"<Storage {'_vars': None, 'function': 'sim', 'coo... '/home/nyeinchan/web2py/applications/monitor/'}>"
p385
sS'IS_EXPR'
p386
S"<class 'gluon.validators.IS_EXPR'>"
p387
sS'IS_IN_SET'
p388
S"<class 'gluon.validators.IS_IN_SET'>"
p389
sS'IS_UPLOAD_FILENAME'
p390
S"<class 'gluon.validators.IS_UPLOAD_FILENAME'>"
p391
sS'IS_DECIMAL_IN_RANGE'
p392
S"<class 'gluon.validators.IS_DECIMAL_IN_RANGE'>"
p393
sS'TT'
p394
S"<class 'gluon.html.TT'>"
p395
sS'T'
S'<gluon.languages.translator object>'
p396
sssS'traceback'
p397
S'Traceback (most recent call last):\n  File "/home/nyeinchan/web2py/gluon/restricted.py", line 227, in restricted\n    exec ccode in environment\n  File "/home/nyeinchan/web2py/applications/monitor/models/dbsetup.py", line 121, in <module>\n    IS_IN_DB(db(db.general_table.config_type == db(db.config_group.name==myconf.get(\'default_type.opt\')).select(db.config_group.id), rname=\'brand\'),\nTypeError: __call__() got an unexpected keyword argument \'rname\'\n'
p398
s.