(dp1
S'output'
p2
S"<type 'exceptions.NameError'> name 'Ture' is not defined"
p3
sS'layer'
p4
S'/home/nyeinchan/web2py/applications/monitor/models/dbsetup.py'
p5
sS'code'
p6
S'from datetime import datetime\nfrom gluon.contrib.appconfig import AppConfig\nmyconf = AppConfig(reload=True)\n\n\n## brand\ndb.define_table(\'brand\',\n\tField(\'name\', \'string\', requires=[IS_NOT_EMPTY()], label="Brand"),\n\tField(\'is_active\', \'boolean\', default=True, label="Active"),\n\tField(\'created_on\', \'datetime\', default=request.now,\n\t\t\treadable=True, writable=False),\n\tField(\'created_by\', \'reference auth_user\', default=auth.user_id,\n\t\t\treadable=True, writable=False),\n\tField(\'modified_on\', \'datetime\', update=request.now,\n\t\t\treadable=True, writable=False),\n\tField(\'modified_by\', \'reference auth_user\', update=auth.user_id,\n\t\t\treadable=True, writable=False),\n\tformat=\'%(name)s\'\n)\n## model\ndb.define_table(\'model\',\n\tField(\'name\', \'string\', requires=[IS_NOT_EMPTY()], label="Model"),\n\tField(\'brand\', \'reference brand\', requires=[ IS_IN_DB(db, db.brand.id, \'%(name)s\'), IS_NOT_EMPTY() ], label="Brand"),\n\tField(\'is_active\', \'boolean\', default=True, label="Active"),\n\tField(\'created_on\', \'datetime\', default=request.now,\n\t\t\treadable=True, writable=False),\n\tField(\'created_by\', \'reference auth_user\', default=auth.user_id,\n\t\t\treadable=True, writable=False),\n\tField(\'modified_on\', \'datetime\', update=request.now,\n\t\t\treadable=True, writable=False),\n\tField(\'modified_by\', \'reference auth_user\', update=auth.user_id,\n\t\t\treadable=True, writable=False),\n\tformat = \'%(name)s\')\n\ndb.model.brand.requires=IS_IN_DB(db, db.brand.id, \'%(name)s\')\n\n\n## config group\ndb.define_table(\'config_group\',\n\tField(\'name\', \'string\', requires=[IS_NOT_EMPTY()]),\n\tField(\'is_active\', \'boolean\', default=True),\n\tformat=\'%(name)s\'\n)\n\n## config\ndb.define_table(\'general_table\',\n\tField(\'code\', \'string\', requires=[IS_NOT_EMPTY()], label="Code"),\n\tField(\'name\', \'string\', requires=[IS_NOT_EMPTY()], label="Name"),\n\tField(\'config_type\', \'reference config_group\', requires=[IS_IN_DB(db, db.config_group.id, \'%(name)s\'), IS_NOT_EMPTY()], label="Type"),\n\tField(\'is_active\', \'boolean\', default=True, label="Active"),\n\tField(\'created_on\', \'datetime\', default=request.now,\n\t\t\treadable=True, writable=False),\n\tField(\'created_by\', \'reference auth_user\', default=auth.user_id,\n\t\t\treadable=True, writable=False),\n\tField(\'modified_on\', \'datetime\', update=request.now,\n\t\t\treadable=True, writable=False),\n\tField(\'modified_by\', \'reference auth_user\', update=auth.user_id,\n\t\t\treadable=True, writable=False),\n\tformat=\'%(name)s\'\n)\ndb.general_table.config_type.requires=IS_IN_DB(db, db.config_group.id, \'%(name)s\')\n\n## Room\ndb.define_table(\'room\',\n\tField(\'name\', \'string\', requires=[IS_NOT_EMPTY()], label="Room"),\n\tField(\'config\', \'reference general_table\', requires=[\n\tIS_IN_DB(db(db.general_table.config_type ==db(db.config_group.name==myconf.get(\'default_type.loc\')).select(db.config_group.id)),\n\tdb.general_table.id, \'%(name)s\'),\n\tIS_NOT_EMPTY() ], label="Location"),\n\tField(\'is_active\', \'boolean\', default=True, label="Active"),\n\tField(\'created_on\', \'datetime\', default=request.now,\n\t\t\treadable=True, writable=False),\n\tField(\'created_by\', \'reference auth_user\', default=auth.user_id,\n\t\t\treadable=True, writable=False),\n\tField(\'modified_on\', \'datetime\', update=request.now,\n\t\t\treadable=True, writable=False),\n\tField(\'modified_by\', \'reference auth_user\', update=auth.user_id,\n\t\t\treadable=True, writable=False),\n\tformat=\'%(name)s\'\n)\n\nlocation_id = \'\'\n\nfor id in db(db.config_group.name==myconf.get(\'default_type.loc\')).select(db.config_group.id):\n    location_id = id\nl_code = db(db.general_table.config_type == location_id).select(db.general_table.id, db.general_table.code)\ndb.room.config.requires=IS_IN_DB(db(db.general_table.config_type == location_id), db.general_table.id, \'%(name)s\', sort=True)\n\n\n## apps\ndb.define_table(\'apps\',\n\tField(\'name\', \'string\', requires=[IS_NOT_EMPTY()], label="Name"),\n\tField(\'app_type\', \'reference general_table\', requires=[\n\tIS_IN_DB(db(db.general_table.config_type == db(db.config_group.name==myconf.get(\'default_type.app\')).select(db.config_group.id)),\n\tdb.general_table.id, \'%(name)s\'),\n\tIS_NOT_EMPTY()], label="Type"),\n\tField(\'is_active\', \'boolean\', default=True, label="Active"),\n\tField(\'created_on\', \'datetime\', default=request.now,\n\t\t\treadable=True, writable=False),\n\tField(\'created_by\', \'reference auth_user\', default=auth.user_id,\n\t\t\treadable=True, writable=False),\n\tField(\'modified_on\', \'datetime\', update=request.now,\n\t\t\treadable=True, writable=False),\n\tField(\'modified_by\', \'reference auth_user\', update=auth.user_id,\n\t\t\treadable=True, writable=False),\n\tformat=\'%(name)s\'\n)\n\napplication_id=\'\'\nfor id in db(db.config_group.name==myconf.get(\'default_type.app\')).select(db.config_group.id):\n    application_id = id\ndb.apps.app_type.requires=IS_IN_DB(db(db.general_table.config_type == application_id), db.general_table.id, \'%(name)s\', sort=True)\n\n## employee\ndb.define_table(\'employee\',\n\tField(\'code\', \'string\', requires=[IS_NOT_EMPTY()], label="Code"),\n\tField(\'name\', \'string\', requires=[IS_NOT_EMPTY()], label="Name"),\n\tField(\'job_title\', \'string\', label="Job Title"),\n\tField(\'department\', \'reference general_table\', requires=[\n\tIS_IN_DB(db(db.general_table.config_type == db(db.config_group.name==myconf.get(\'default_type.dpt\')).select(db.config_group.id)),\n\tdb.general_table.id, \'%(name)s\'),\n\tIS_NOT_EMPTY()], label="Department"),\n\tField(\'is_active\', \'boolean\', default=True, label="Active"),\n\tField(\'created_on\', \'datetime\', default=request.now,\n\t\t\treadable=True, writable=False),\n\tField(\'created_by\', \'reference auth_user\', default=auth.user_id,\n\t\t\treadable=True, writable=False),\n\tField(\'modified_on\', \'datetime\', update=request.now,\n\t\t\treadable=True, writable=False),\n\tField(\'modified_by\', \'reference auth_user\', update=auth.user_id,\n\t\t\treadable=True, writable=False),\n\tformat=\'%(name)s\')\n\ndepartment_id = \'\'\nfor id in db(db.config_group.name==myconf.get(\'default_type.dpt\')).select(db.config_group.id):\n    department_id = id\ndb.employee.department.requires=IS_IN_DB(db(db.general_table.config_type == department_id), db.general_table.id, \'%(name)s\', sort=True)\n\n##sim\ndb.define_table(\'sim\',\n\tField(\'sim_number\', \'string\', requires=[IS_NOT_EMPTY()],label="Phone Number"),\n\tField(\'brand_type\', \'reference general_table\', requires=[\n\tIS_IN_DB(db(db.general_table.config_type == db(db.config_group.name==myconf.get(\'default_type.opt\')).select(db.config_group.id)),\n\tdb.general_table.id, \'%(name)s\'),\n\tIS_NOT_EMPTY()], label="Operator"),\n\tField(\'empty_col\', \'string\', requires=[IS_NOT_EMPTY()], label="Empty", default=None, readable=True, writable=False),\n\tField(\'plan_type\', \'reference general_table\', requires=[\n\tIS_IN_DB(db(db.general_table.config_type == db(db.config_group.name==myconf.get(\'default_type.pln\')).select(db.config_group.id)),\n\tdb.general_table.id, \'%(name)s\'),\n\tIS_NOT_EMPTY()], label="Plan"),\n\tField(\'is_active\', \'boolean\', default=True, label="Active"),\n\tField(\'created_on\', \'datetime\', default=request.now,\n\t\t\treadable=True, writable=False),\n\tField(\'created_by\', \'reference auth_user\', default=auth.user_id,\n\t\t\treadable=True, writable=False),\n\tField(\'modified_on\', \'datetime\', update=request.now,\n\t\t\treadable=True, writable=False),\n\tField(\'modified_by\', \'reference auth_user\', update=auth.user_id,\n\t\t\treadable=True, writable=False),\n\tformat=\'%(name)s\'\n)\noperator_id = \'\'\nplan_id = \'\'\nfor id in db(db.config_group.name==myconf.get(\'default_type.opt\')).select(db.config_group.id):\n\toperator_id = id\ndb.sim.brand_type.requires=IS_IN_DB(db(db.general_table.config_type == operator_id), db.general_table.id, \'%(name)s\', sort=True)\nfor id in db(db.config_group.name==myconf.get(\'default_type.pln\')).select(db.config_group.id):\n\toperator_id = id\ndb.sim.plan_type.requires=IS_IN_DB(db(db.general_table.config_type == plan_id), db.general_table.id, \'%(name)s\', sort=True)\n\n## email\ndb.define_table(\'email_account\',\n\tField(\'username\', \'string\', requires=[IS_NOT_EMPTY()], label="Email Address"),\n\tField(\'default_password\', \'string\', label="Default Password"),\n\tField(\'user_type\', \'reference general_table\', requires=[\n\tIS_IN_DB(db(db.general_table.config_type == db(db.config_group.name==myconf.get(\'default_type.user\')).select(db.config_group.id)),\n\tdb.general_table.id, \'%(name)s\'),\n\tIS_NOT_EMPTY()], label="User Type"),\n\tField(\'empty_col\', \'string\', requires=[IS_NOT_EMPTY()], default=None, label="Empty", readable=True, writable=False),\n\tField(\'license_type\', \'reference general_table\', requires=[\n\tIS_IN_DB(db(db.general_table.config_type == db(db.config_group.name==myconf.get(\'default_type.lns\')).select(db.config_group.id)),\n\tdb.general_table.id, \'%(name)s\'),\n\tIS_NOT_EMPTY()], label="License Type"),\n\tField(\'is_used\', \'boolean\', default=True, label="Used"),\n\tField(\'is_active\', \'boolean\', default=True, label="Active"),\n\tField(\'created_on\', \'datetime\', default=request.now,\n\t\t\treadable=True, writable=False),\n\tField(\'created_by\', \'reference auth_user\', default=auth.user_id,\n\t\t\treadable=True, writable=False),\n\tField(\'modified_on\', \'datetime\', update=request.now,\n\t\t\treadable=True, writable=False),\n\tField(\'modified_by\', \'reference auth_user\', update=auth.user_id,\n\t\t\treadable=True, writable=False),\n\tformat=\'%(name)s\')\n\nuser_id = \'\'\nlicense_id = \'\'\nfor id in db(db.config_group.name==myconf.get(\'default_type.usr\')).select(db.config_group.id):\n    user_id = id\ndb.email_account.user_type.requires=IS_IN_DB(db(db.general_table.config_type == user_id), db.general_table.id, \'%(name)s\', sort=True)\nfor id in db(db.config_group.name==myconf.get(\'default_type.lns\')).select(db.config_group.id):\n    license_id = id\ndb.email_account.license_type.requires=IS_IN_DB(db(db.general_table.config_type == license_id), db.general_table.id, \'%(name)s\', sort=True)\n\n## email\ndb.define_table(\'device\',\n\tField(\'name\', \'string\', requires=[IS_NOT_EMPTY()], label="Name"),\n\tField(\'device_type\', \'reference general_table\', requires=[\n\tIS_IN_DB(db(db.general_table.config_type == db(db.config_group.name==myconf.get(\'default_type.dvc\')).select(db.config_group.id)),\n\tdb.general_table.id, \'%(name)s\'),\n\tIS_NOT_EMPTY()], label="Type"),\n\tField(\'model_id\', \'reference model\', requires=[ IS_IN_DB(db, db.model.id, \'%(name)s\'), IS_NOT_EMPTY() ], label="Model"),\n\tField(\'os_type\', \'reference general_table\', requires=[\n\tIS_IN_DB(db(db.general_table.config_type == db(db.config_group.name==myconf.get(\'default_type.oss\')).select(db.config_group.id)),\n\tdb.general_table.id, \'%(name)s\'),\n\tIS_NOT_EMPTY()], label="Operation System"),\n\tField(\'cpu\', \'string\', requires=[IS_NOT_EMPTY()], label="CPU"),\n\tField(\'ram\', \'string\', requires=[IS_NOT_EMPTY()], label="RAM"),\n\tField(\'hard_disk\', \'string\', requires=[IS_NOT_EMPTY()], label="HDD"),\n\tField(\'drive\', \'string\', label="CD/DVD"),\n\tField(\'screen_size\', \'string\', label="Display"),\n\tField(\'is_active\', \'boolean\', default=True, label="Active"),\n\tField(\'created_on\', \'datetime\', default=request.now,\n\t\t\treadable=True, writable=False),\n\tField(\'created_by\', \'reference auth_user\', default=auth.user_id,\n\t\t\treadable=True, writable=False),\n\tField(\'modified_on\', \'datetime\', update=request.now,\n\t\t\treadable=True, writable=False),\n\tField(\'modified_by\', \'reference auth_user\', update=auth.user_id,\n\t\t\treadable=True, writable=False),\n\tformat=\'%(name)s\')\n\n\ndevice_id = \'\'\nos_id = \'\'\ndb.device.model_id.requires=IS_IN_DB(db, db.model.id, \'%(name)s\')\nfor id in db(db.config_group.name==myconf.get(\'default_type.dvc\')).select(db.config_group.id):\n    device_id = id\ndb.device.device_type.requires=IS_IN_DB(db(db.general_table.config_type == device_id), db.general_table.id, \'%(name)s\', sort=True)\nd_code = db(db.general_table.config_type == device_id).select(db.general_table.id, db.general_table.code)\nfor id in db(db.config_group.name==myconf.get(\'default_type.oss\')).select(db.config_group.id):\n    os_id = id\ndb.device.os_type.requires=IS_IN_DB(db(db.general_table.config_type == os_id), db.general_table.id, \'%(name)s\', sort=True)\ndb.device.name.readonly = True\n\n\n## Rent Device\ndb.define_table(\'rent\',\n\tField(\'employee_id\', \'reference employee\', requires=IS_NOT_EMPTY(), label="Employee"),\n\tField(\'rent_date\', \'datetime\', requires=IS_NOT_EMPTY(),  default=request.now, label="Rent Date"),\n\tField(\'device_id\', \'reference device\', requires=IS_NOT_EMPTY(), label="Device"),\n\tField(\'serial_number\', \'string\', requires=IS_NOT_EMPTY(), label="S/N or Assets Number"),\n\tField(\'rent_desc\', \'string\', label="Rent Description"),\n\tField(\'is_received\', \'boolean\', default=False, label="Received"),\n\tField(\'receive_date\', \'datetime\', label="Receive Date"),\n\tField(\'created_on\', \'datetime\', default=request.now,\n\t\t\treadable=True, writable=False),\n\tField(\'created_by\', \'reference auth_user\', default=auth.user_id,\n\t\t\treadable=True, writable=False),\n\tField(\'modified_on\', \'datetime\', update=request.now,\n\t\t\treadable=True, writable=False),\n\tField(\'modified_by\', \'reference auth_user\', update=auth.user_id,\n\t\t\treadable=True, writable=False),\n\n)\ndb.rent.rent_date.represent= lambda x, row: x.strftime("%B %d, %Y")\ndb.rent.receive_date.show_if = (db.rent.is_received == Ture)\ndb.rent.employee_id.requires = IS_IN_DB(db(db.employee.is_active == True),\n\t\t\t\t\t\t\t\t\tdb.employee.id, \'%(name)s\', sort=True)\ndb.rent.device_id.requires = IS_IN_DB(db(db.device.is_active == True),\n\t\t\t\t\t\t\t\t\t\t  db.device.id, \'%(name)s\', sort=True)\n\n\ndb.define_table(\'assign\',\n    Field(\'employee_id\', \'reference employee\', label="Employee"),\n    Field(\'assign_date\', \'datetime\', default=request.now, label="Assign Date"),\n\tField(\'email_id\', \'reference email_account\', label="E-Mail"),\n\tField(\'room_id\', \'reference room\', label="Room"),\n\tField(\'is_active\', \'boolean\', default=True, label="Active"),\n\tField(\'created_on\', \'datetime\', default=request.now,\n\t\t\treadable=True, writable=False),\n\tField(\'created_by\', \'reference auth_user\', default=auth.user_id,\n\t\t\treadable=True, writable=False),\n\tField(\'modified_on\', \'datetime\', update=request.now,\n\t\t\treadable=True, writable=False),\n\tField(\'modified_by\', \'reference auth_user\', update=auth.user_id,\n\t\t\treadable=True, writable=False),\n    format=lambda r: "%s_%s" % (r.assign_date.strftime("%Y%m%d"),\n                                   db.employee(r.employee_id).name))\n\n\ndb.assign.employee_id.requires = [IS_IN_DB(db(db.employee.is_active == True),\n\t\t\t\t\t\t\t\t\tdb.employee.id, \'%(name)s\'),\n\t\t\t\t\t\t\t\t  IS_NOT_EMPTY()]\ndb.assign.assign_date.requires = [IS_NOT_EMPTY()]\ndb.assign.email_id.requires = [IS_IN_DB(db(db.email_account.is_used == False and\n\t\t\t\t\t\t\t\t\tdb.email_account.is_active == True),\n\t\t\t\t\t\t\t\t\tdb.email_account.id, \'%(username)s\'),\n\t\t\t\t\t\t\t   IS_NOT_EMPTY()]\ndb.assign.room_id.requires = [IS_IN_DB(db(db.room.is_active == True),\n\t\t\t\t\t\t\t\t\tdb.room.id, \'%(name)s\'),\n\t\t\t\t\t\t\t  IS_NOT_EMPTY()]\n\n\ndb.define_table(\'assign_detail\',\n    Field(\'assign_id\', \'reference assign\'),\n    Field(\'device_id\', \'reference device\'),\n    Field(\'serial\', \'string\'),\n    Field(\'asset_number\', \'string\'),\n    Field(\'device_color\', \'string\')\n    )\n\n\n## default user root\nif db(db.auth_user).count() <1:\n\tdb.auth_group.bulk_insert([\n\t\tdict(role=\'Admin\', description=\'System user\'),\n\t\tdict(role=\'Manager\', description=\'Manager\'),\n\t\tdict(role=\'User\', description=\'User\')\n\t])\n\n\tdb.auth_user.bulk_insert([\n\t\tdict(\n\t\t\tfirst_name=\'System\',\n\t\t\tlast_name=\'Admin\',\n\t\t\temail=\'root@coca-cola.com.mm\',\n\t\t\tpassword=db.auth_user.password.validate(\'C0ke@12345\')[0]\n\t\t),\n\t\tdict(\n\t\t\tfirst_name=\'Nyein\',\n\t\t\tlast_name=\'Chan\',\n\t\t\temail=\'nyeinchan@coca-cola.com.mm\',\n\t\t\tpassword=db.auth_user.password.validate(\'Basn4@C01\')[0]\n\t\t)\n\t])\n\n\tauth.add_membership(user_id=1, group_id=1)\n\tauth.add_membership(user_id=2, group_id=1)\n\nif db(db.config_group).count() < 1:\n\tdb.config_group.bulk_insert([\n\t\tdict(name=myconf.get(\'default_type.acs\')),\n\t\tdict(name=myconf.get(\'default_type.app\')),\n\t\tdict(name=myconf.get(\'default_type.dpt\')),\n\t\tdict(name=myconf.get(\'default_type.dvc\')),\n\t\tdict(name=myconf.get(\'default_type.eml\')),\n\t\tdict(name=myconf.get(\'default_type.loc\')),\n\t\tdict(name=myconf.get(\'default_type.lnc\')),\n\t\tdict(name=myconf.get(\'default_type.opt\')),\n\t\tdict(name=myconf.get(\'default_type.pln\')),\n\t\tdict(name=myconf.get(\'default_type.usr\'))\n\t])\n'
p7
sS'snapshot'
p8
(dp9
S'exception'
p10
(dp11
S'__hash__'
p12
S"<method-wrapper '__hash__' of exceptions.NameError object>"
p13
sS'__setattr__'
p14
S"<method-wrapper '__setattr__' of exceptions.NameError object>"
p15
sS'__reduce_ex__'
p16
S'<built-in method __reduce_ex__ of exceptions.NameError object>'
p17
sS'__getslice__'
p18
S"<method-wrapper '__getslice__' of exceptions.NameError object>"
p19
sS'__getitem__'
p20
S"<method-wrapper '__getitem__' of exceptions.NameError object>"
p21
sS'__setstate__'
p22
S'<built-in method __setstate__ of exceptions.NameError object>'
p23
sS'args'
p24
S'("name \'Ture\' is not defined",)'
p25
sS'__reduce__'
p26
S'<built-in method __reduce__ of exceptions.NameError object>'
p27
sS'__str__'
p28
S"<method-wrapper '__str__' of exceptions.NameError object>"
p29
sS'__format__'
p30
S'<built-in method __format__ of exceptions.NameError object>'
p31
sS'__getattribute__'
p32
S"<method-wrapper '__getattribute__' of exceptions.NameError object>"
p33
sS'__class__'
p34
S"<type 'exceptions.NameError'>"
p35
sS'__unicode__'
p36
S'<built-in method __unicode__ of exceptions.NameError object>'
p37
sS'__delattr__'
p38
S"<method-wrapper '__delattr__' of exceptions.NameError object>"
p39
sS'__subclasshook__'
p40
S'<built-in method __subclasshook__ of type object>'
p41
sS'__repr__'
p42
S"<method-wrapper '__repr__' of exceptions.NameError object>"
p43
sS'__dict__'
p44
S'{}'
p45
sS'__sizeof__'
p46
S'<built-in method __sizeof__ of exceptions.NameError object>'
p47
sS'__doc__'
p48
S"'Name not found globally.'"
p49
sS'__init__'
p50
S"<method-wrapper '__init__' of exceptions.NameError object>"
p51
sS'__new__'
p52
S'<built-in method __new__ of type object>'
p53
ssS'evalue'
p54
S"name 'Ture' is not defined"
p55
sS'request'
p56
cgluon.html
XML_unpickle
p57
(S's\xd8b\x00\x00<div><table><tr><td style="font-weight:bold;vertical-align:top;">ajax</td><td style="vertical-align:top;">:</td><td><div>False</div></td></tr><tr><td style="font-weight:bold;vertical-align:top;">application</td><td style="vertical-align:top;">:</td><td><div>monitor</div></td></tr><tr><td style="font-weight:bold;vertical-align:top;">args</td><td style="vertical-align:top;">:</td><td><div><table><tr><td><div>rent</div></td></tr><tr><td><div>new</div></td></tr><tr><td><div>rent</div></td></tr></table></div></td></tr><tr><td style="font-weight:bold;vertical-align:top;">cid</td><td style="vertical-align:top;">:</td><td><div>None</div></td></tr><tr><td style="font-weight:bold;vertical-align:top;">client</td><td style="vertical-align:top;">:</td><td><div>127.0.0.1</div></td></tr><tr><td style="font-weight:bold;vertical-align:top;">controller</td><td style="vertical-align:top;">:</td><td><div>default</div></td></tr><tr><td style="font-weight:bold;vertical-align:top;">cookies</td><td style="vertical-align:top;">:</td><td><div><table><tr><td style="font-weight:bold;vertical-align:top;">adminLanguage</td><td style="vertical-align:top;">:</td><td><div>my-mm<table><tr><td style="font-weight:bold;vertical-align:top;">comment</td><td style="vertical-align:top;">:</td><td><div></div></td></tr><tr><td style="font-weight:bold;vertical-align:top;">domain</td><td style="vertical-align:top;">:</td><td><div></div></td></tr><tr><td style="font-weight:bold;vertical-align:top;">expires</td><td style="vertical-align:top;">:</td><td><div></div></td></tr><tr><td style="font-weight:bold;vertical-align:top;">httponly</td><td style="vertical-align:top;">:</td><td><div></div></td></tr><tr><td style="font-weight:bold;vertical-align:top;">max-age</td><td style="vertical-align:top;">:</td><td><div></div></td></tr><tr><td style="font-weight:bold;vertical-align:top;">path</td><td style="vertical-align:top;">:</td><td><div></div></td></tr><tr><td style="font-weight:bold;vertical-align:top;">secure</td><td style="vertical-align:top;">:</td><td><div></div></td></tr><tr><td style="font-weight:bold;vertical-align:top;">version</td><td style="vertical-align:top;">:</td><td><div></div></td></tr></table></div></td></tr><tr><td style="font-weight:bold;vertical-align:top;">session_id_admin</td><td style="vertical-align:top;">:</td><td><div>127.0.0.1-38e9d62a-4595-4c1e-ac56-f0c71dd08b56<table><tr><td style="font-weight:bold;vertical-align:top;">comment</td><td style="vertical-align:top;">:</td><td><div></div></td></tr><tr><td style="font-weight:bold;vertical-align:top;">domain</td><td style="vertical-align:top;">:</td><td><div></div></td></tr><tr><td style="font-weight:bold;vertical-align:top;">expires</td><td style="vertical-align:top;">:</td><td><div></div></td></tr><tr><td style="font-weight:bold;vertical-align:top;">httponly</td><td style="vertical-align:top;">:</td><td><div></div></td></tr><tr><td style="font-weight:bold;vertical-align:top;">max-age</td><td style="vertical-align:top;">:</td><td><div></div></td></tr><tr><td style="font-weight:bold;vertical-align:top;">path</td><td style="vertical-align:top;">:</td><td><div></div></td></tr><tr><td style="font-weight:bold;vertical-align:top;">secure</td><td style="vertical-align:top;">:</td><td><div></div></td></tr><tr><td style="font-weight:bold;vertical-align:top;">version</td><td style="vertical-align:top;">:</td><td><div></div></td></tr></table></div></td></tr><tr><td style="font-weight:bold;vertical-align:top;">session_id_monitor</td><td style="vertical-align:top;">:</td><td><div>127.0.0.1-9580b262-3717-4b53-a7f3-c3dcdeba75dc<table><tr><td style="font-weight:bold;vertical-align:top;">comment</td><td style="vertical-align:top;">:</td><td><div></div></td></tr><tr><td style="font-weight:bold;vertical-align:top;">domain</td><td style="vertical-align:top;">:</td><td><div></div></td></tr><tr><td style="font-weight:bold;vertical-align:top;">expires</td><td style="vertical-align:top;">:</td><td><div></div></td></tr><tr><td style="font-weight:bold;vertical-align:top;">httponly</td><td style="vertical-align:top;">:</td><td><div></div></td></tr><tr><td style="font-weight:bold;vertical-align:top;">max-age</td><td style="vertical-align:top;">:</td><td><div></div></td></tr><tr><td style="font-weight:bold;vertical-align:top;">path</td><td style="vertical-align:top;">:</td><td><div></div></td></tr><tr><td style="font-weight:bold;vertical-align:top;">secure</td><td style="vertical-align:top;">:</td><td><div></div></td></tr><tr><td style="font-weight:bold;vertical-align:top;">version</td><td style="vertical-align:top;">:</td><td><div></div></td></tr></table></div></td></tr><tr><td style="font-weight:bold;vertical-align:top;">session_id_mrnyein</td><td style="vertical-align:top;">:</td><td><div>127.0.0.1-0148fe35-1145-4bd9-ac1c-5c3e44614d8a<table><tr><td style="font-weight:bold;vertical-align:top;">comment</td><td style="vertical-align:top;">:</td><td><div></div></td></tr><tr><td style="font-weight:bold;vertical-align:top;">domain</td><td style="vertical-align:top;">:</td><td><div></div></td></tr><tr><td style="font-weight:bold;vertical-align:top;">expires</td><td style="vertical-align:top;">:</td><td><div></div></td></tr><tr><td style="font-weight:bold;vertical-align:top;">httponly</td><td style="vertical-align:top;">:</td><td><div></div></td></tr><tr><td style="font-weight:bold;vertical-align:top;">max-age</td><td style="vertical-align:top;">:</td><td><div></div></td></tr><tr><td style="font-weight:bold;vertical-align:top;">path</td><td style="vertical-align:top;">:</td><td><div></div></td></tr><tr><td style="font-weight:bold;vertical-align:top;">secure</td><td style="vertical-align:top;">:</td><td><div></div></td></tr><tr><td style="font-weight:bold;vertical-align:top;">version</td><td style="vertical-align:top;">:</td><td><div></div></td></tr></table></div></td></tr></table></div></td></tr><tr><td style="font-weight:bold;vertical-align:top;">env</td><td style="vertical-align:top;">:</td><td><div><table><tr><td style="font-weight:bold;vertical-align:top;">HTTP_ACCEPT</td><td style="vertical-align:top;">:</td><td><div>text/html,application/xhtml+xml,application/xml;q=0.9,image/webp,*/*;q=0.8</div></td></tr><tr><td style="font-weight:bold;vertical-align:top;">HTTP_ACCEPT_ENCODING</td><td style="vertical-align:top;">:</td><td><div>gzip, deflate, sdch</div></td></tr><tr><td style="font-weight:bold;vertical-align:top;">HTTP_ACCEPT_LANGUAGE</td><td style="vertical-align:top;">:</td><td><div>en-US,en;q=0.8</div></td></tr><tr><td style="font-weight:bold;vertical-align:top;">HTTP_CACHE_CONTROL</td><td style="vertical-align:top;">:</td><td><div>max-age=0</div></td></tr><tr><td style="font-weight:bold;vertical-align:top;">HTTP_CONNECTION</td><td style="vertical-align:top;">:</td><td><div>keep-alive</div></td></tr><tr><td style="font-weight:bold;vertical-align:top;">HTTP_COOKIE</td><td style="vertical-align:top;">:</td><td><div>adminLanguage=my-mm; session_id_mrnyein=127.0.0.1-0148fe35-1145-4bd9-ac1c-5c3e44614d8a; session_id_admin=127.0.0.1-38e9d62a-4595-4c1e-ac56-f0c71dd08b56; session_id_monitor=127.0.0.1-9580b262-3717-4b53-a7f3-c3dcdeba75dc</div></td></tr><tr><td style="font-weight:bold;vertical-align:top;">HTTP_HOST</td><td style="vertical-align:top;">:</td><td><div>localhost:8000</div></td></tr><tr><td style="font-weight:bold;vertical-align:top;">HTTP_REFERER</td><td style="vertical-align:top;">:</td><td><div>http://localhost:8000/rent/rent?_signature=8c4abc505f956204c69c697f684abae1d1ebf64b</div></td></tr><tr><td style="font-weight:bold;vertical-align:top;">HTTP_UPGRADE_INSECURE_REQUESTS</td><td style="vertical-align:top;">:</td><td><div>1</div></td></tr><tr><td style="font-weight:bold;vertical-align:top;">HTTP_USER_AGENT</td><td style="vertical-align:top;">:</td><td><div>Mozilla/5.0 (X11; Linux x86_64) AppleWebKit/537.36 (KHTML, like Gecko) Chrome/53.0.2785.143 Safari/537.36</div></td></tr><tr><td style="font-weight:bold;vertical-align:top;">PATH_INFO</td><td style="vertical-align:top;">:</td><td><div>/rent/rent/new/rent</div></td></tr><tr><td style="font-weight:bold;vertical-align:top;">QUERY_STRING</td><td style="vertical-align:top;">:</td><td><div>_signature=e00238f27f3658434aa14cbd17bf2c994694a859</div></td></tr><tr><td style="font-weight:bold;vertical-align:top;">REMOTE_ADDR</td><td style="vertical-align:top;">:</td><td><div>127.0.0.1</div></td></tr><tr><td style="font-weight:bold;vertical-align:top;">REMOTE_PORT</td><td style="vertical-align:top;">:</td><td><div>43294</div></td></tr><tr><td style="font-weight:bold;vertical-align:top;">REQUEST_METHOD</td><td style="vertical-align:top;">:</td><td><div>GET</div></td></tr><tr><td style="font-weight:bold;vertical-align:top;">SCRIPT_NAME</td><td style="vertical-align:top;">:</td><td><div></div></td></tr><tr><td style="font-weight:bold;vertical-align:top;">SERVER_NAME</td><td style="vertical-align:top;">:</td><td><div>HTY-L-PC09DD2CU</div></td></tr><tr><td style="font-weight:bold;vertical-align:top;">SERVER_PORT</td><td style="vertical-align:top;">:</td><td><div>8000</div></td></tr><tr><td style="font-weight:bold;vertical-align:top;">SERVER_PROTOCOL</td><td style="vertical-align:top;">:</td><td><div>HTTP/1.1</div></td></tr><tr><td style="font-weight:bold;vertical-align:top;">SERVER_SOFTWARE</td><td style="vertical-align:top;">:</td><td><div>Rocket 1.2.6</div></td></tr><tr><td style="font-weight:bold;vertical-align:top;">app_folders</td><td style="vertical-align:top;">:</td><td><div>set([&#x27;/home/nyeinchan/web2py/applications/monitor/&#x27;, &#x27;/home/nyeinchan/web2py/applications/admin/&#x27;, &#x27;/home/nyeinchan/web2py/applications/mrnyein/&#x27;])</div></td></tr><tr><td style="font-weight:bold;vertical-align:top;">applications_parent</td><td style="vertical-align:top;">:</td><td><div>/home/nyeinchan/web2py</div></td></tr><tr><td style="font-weight:bold;vertical-align:top;">cmd_args</td><td style="vertical-align:top;">:</td><td><div><table></table></div></td></tr><tr><td style="font-weight:bold;vertical-align:top;">cmd_options</td><td style="vertical-align:top;">:</td><td><div>&lt;Values at 0x7f4bf977b830: {&#x27;verbose&#x27;: False, &#x27;ip&#x27;: &#x27;127.0.0.1&#x27;, &#x27;debuglevel&#x27;: 30, &#x27;with_scheduler&#x27;: False, &#x27;shutdown_timeout&#x27;: 5, &#x27;taskbar&#x27;: False, &#x27;with_coverage&#x27;: False, &#x27;pid_filename&#x27;: &#x27;httpserver.pid&#x27;, &#x27;maxthreads&#x27;: None, &#x27;softcron&#x27;: False, &#x27;server_name&#x27;: &#x27;HTY-L-PC09DD2CU&#x27;, &#x27;bpython&#x27;: False, &#x27;nogui&#x27;: False, &#x27;port&#x27;: 8000, &#x27;print_errors&#x27;: False, &#x27;extcron&#x27;: False, &#x27;runcron&#x27;: False, &#x27;run_system_tests&#x27;: False, &#x27;test&#x27;: None, &#x27;folder&#x27;: &#x27;/home/nyeinchan/web2py&#x27;, &#x27;config&#x27;: &#x27;&#x27;, &#x27;minthreads&#x27;: None, &#x27;shell&#x27;: None, &#x27;run&#x27;: &#x27;&#x27;, &#x27;log_filename&#x27;: &#x27;httpserver.log&#x27;, &#x27;profiler_dir&#x27;: None, &#x27;args&#x27;: [&#x27;&#x27;], &#x27;socket_timeout&#x27;: 5, &#x27;ssl_ca_certificate&#x27;: None, &#x27;scheduler&#x27;: None, &#x27;interfaces&#x27;: None, &#x27;ssl_private_key&#x27;: &#x27;&#x27;, &#x27;gae&#x27;: None, &#x27;password&#x27;: &#x27;******&#x27;, &#x27;request_queue_size&#x27;: 5, &#x27;ssl_certificate&#x27;: &#x27;&#x27;, &#x27;cronjob&#x27;: False, &#x27;numthreads&#x27;: None, &#x27;quiet&#x27;: False, &#x27;import_models&#x27;: False, &#x27;timeout&#x27;: 10, &#x27;plain&#x27;: False, &#x27;nobanner&#x27;: False}&gt;</div></td></tr><tr><td style="font-weight:bold;vertical-align:top;">db_sessions</td><td style="vertical-align:top;">:</td><td><div>set([])</div></td></tr><tr><td style="font-weight:bold;vertical-align:top;">debugging</td><td style="vertical-align:top;">:</td><td><div>False</div></td></tr><tr><td style="font-weight:bold;vertical-align:top;">gluon_parent</td><td style="vertical-align:top;">:</td><td><div>/home/nyeinchan/web2py</div></td></tr><tr><td style="font-weight:bold;vertical-align:top;">http_accept</td><td style="vertical-align:top;">:</td><td><div>text/html,application/xhtml+xml,application/xml;q=0.9,image/webp,*/*;q=0.8</div></td></tr><tr><td style="font-weight:bold;vertical-align:top;">http_accept_encoding</td><td style="vertical-align:top;">:</td><td><div>gzip, deflate, sdch</div></td></tr><tr><td style="font-weight:bold;vertical-align:top;">http_accept_language</td><td style="vertical-align:top;">:</td><td><div>en-US,en;q=0.8</div></td></tr><tr><td style="font-weight:bold;vertical-align:top;">http_cache_control</td><td style="vertical-align:top;">:</td><td><div>max-age=0</div></td></tr><tr><td style="font-weight:bold;vertical-align:top;">http_connection</td><td style="vertical-align:top;">:</td><td><div>keep-alive</div></td></tr><tr><td style="font-weight:bold;vertical-align:top;">http_cookie</td><td style="vertical-align:top;">:</td><td><div>adminLanguage=my-mm; session_id_mrnyein=127.0.0.1-0148fe35-1145-4bd9-ac1c-5c3e44614d8a; session_id_admin=127.0.0.1-38e9d62a-4595-4c1e-ac56-f0c71dd08b56; session_id_monitor=127.0.0.1-9580b262-3717-4b53-a7f3-c3dcdeba75dc</div></td></tr><tr><td style="font-weight:bold;vertical-align:top;">http_host</td><td style="vertical-align:top;">:</td><td><div>localhost:8000</div></td></tr><tr><td style="font-weight:bold;vertical-align:top;">http_referer</td><td style="vertical-align:top;">:</td><td><div>http://localhost:8000/rent/rent?_signature=8c4abc505f956204c69c697f684abae1d1ebf64b</div></td></tr><tr><td style="font-weight:bold;vertical-align:top;">http_upgrade_insecure_requests</td><td style="vertical-align:top;">:</td><td><div>1</div></td></tr><tr><td style="font-weight:bold;vertical-align:top;">http_user_agent</td><td style="vertical-align:top;">:</td><td><div>Mozilla/5.0 (X11; Linux x86_64) AppleWebKit/537.36 (KHTML, like Gecko) Chrome/53.0.2785.143 Safari/537.36</div></td></tr><tr><td style="font-weight:bold;vertical-align:top;">is_jython</td><td style="vertical-align:top;">:</td><td><div>False</div></td></tr><tr><td style="font-weight:bold;vertical-align:top;">is_pypy</td><td style="vertical-align:top;">:</td><td><div>False</div></td></tr><tr><td style="font-weight:bold;vertical-align:top;">is_source</td><td style="vertical-align:top;">:</td><td><div>True</div></td></tr><tr><td style="font-weight:bold;vertical-align:top;">local_hosts</td><td style="vertical-align:top;">:</td><td><div><table><tr><td><div>HTY-L-PC09DD2CU</div></td></tr><tr><td><div>::1</div></td></tr><tr><td><div>127.0.1.1</div></td></tr><tr><td><div>::ffff:127.0.0.1</div></td></tr><tr><td><div>127.0.0.1</div></td></tr></table></div></td></tr><tr><td style="font-weight:bold;vertical-align:top;">path_info</td><td style="vertical-align:top;">:</td><td><div>/rent/rent/new/rent</div></td></tr><tr><td style="font-weight:bold;vertical-align:top;">query_string</td><td style="vertical-align:top;">:</td><td><div>_signature=e00238f27f3658434aa14cbd17bf2c994694a859</div></td></tr><tr><td style="font-weight:bold;vertical-align:top;">remote_addr</td><td style="vertical-align:top;">:</td><td><div>127.0.0.1</div></td></tr><tr><td style="font-weight:bold;vertical-align:top;">remote_port</td><td style="vertical-align:top;">:</td><td><div>43294</div></td></tr><tr><td style="font-weight:bold;vertical-align:top;">request_method</td><td style="vertical-align:top;">:</td><td><div>GET</div></td></tr><tr><td style="font-weight:bold;vertical-align:top;">request_uri</td><td style="vertical-align:top;">:</td><td><div>/monitor/en-us/default/rent/rent/new/rent?_signature=e00238f27f3658434aa14cbd17bf2c994694a859</div></td></tr><tr><td style="font-weight:bold;vertical-align:top;">script_name</td><td style="vertical-align:top;">:</td><td><div></div></td></tr><tr><td style="font-weight:bold;vertical-align:top;">server_name</td><td style="vertical-align:top;">:</td><td><div>HTY-L-PC09DD2CU</div></td></tr><tr><td style="font-weight:bold;vertical-align:top;">server_port</td><td style="vertical-align:top;">:</td><td><div>8000</div></td></tr><tr><td style="font-weight:bold;vertical-align:top;">server_protocol</td><td style="vertical-align:top;">:</td><td><div>HTTP/1.1</div></td></tr><tr><td style="font-weight:bold;vertical-align:top;">server_software</td><td style="vertical-align:top;">:</td><td><div>Rocket 1.2.6</div></td></tr><tr><td style="font-weight:bold;vertical-align:top;">web2py_original_uri</td><td style="vertical-align:top;">:</td><td><div>/rent/rent/new/rent?_signature=e00238f27f3658434aa14cbd17bf2c994694a859</div></td></tr><tr><td style="font-weight:bold;vertical-align:top;">web2py_path</td><td style="vertical-align:top;">:</td><td><div>/home/nyeinchan/web2py</div></td></tr><tr><td style="font-weight:bold;vertical-align:top;">web2py_version</td><td style="vertical-align:top;">:</td><td><div>2.14.6-stable+timestamp.2016.05.10.00.21.47</div></td></tr><tr><td style="font-weight:bold;vertical-align:top;">wsgi.errors</td><td style="vertical-align:top;">:</td><td><div>&lt;open file &#x27;&lt;stderr&gt;&#x27;, mode &#x27;w&#x27; at 0x7f4bff1f81e0&gt;</div></td></tr><tr><td style="font-weight:bold;vertical-align:top;">wsgi.file_wrapper</td><td style="vertical-align:top;">:</td><td><div>&lt;class wsgiref.util.FileWrapper at 0x7f4bf95f56d0&gt;</div></td></tr><tr><td style="font-weight:bold;vertical-align:top;">wsgi.input</td><td style="vertical-align:top;">:</td><td><div>&lt;socket._fileobject object at 0x7f4bce6b4750&gt;</div></td></tr><tr><td style="font-weight:bold;vertical-align:top;">wsgi.multiprocess</td><td style="vertical-align:top;">:</td><td><div>False</div></td></tr><tr><td style="font-weight:bold;vertical-align:top;">wsgi.multithread</td><td style="vertical-align:top;">:</td><td><div>True</div></td></tr><tr><td style="font-weight:bold;vertical-align:top;">wsgi.run_once</td><td style="vertical-align:top;">:</td><td><div>False</div></td></tr><tr><td style="font-weight:bold;vertical-align:top;">wsgi.url_scheme</td><td style="vertical-align:top;">:</td><td><div>http</div></td></tr><tr><td style="font-weight:bold;vertical-align:top;">wsgi.version</td><td style="vertical-align:top;">:</td><td><div><table><tr><td><div>1</div></td></tr><tr><td><div>0</div></td></tr></table></div></td></tr><tr><td style="font-weight:bold;vertical-align:top;">wsgi_errors</td><td style="vertical-align:top;">:</td><td><div>&lt;open file &#x27;&lt;stderr&gt;&#x27;, mode &#x27;w&#x27; at 0x7f4bff1f81e0&gt;</div></td></tr><tr><td style="font-weight:bold;vertical-align:top;">wsgi_file_wrapper</td><td style="vertical-align:top;">:</td><td><div>&lt;class wsgiref.util.FileWrapper at 0x7f4bf95f56d0&gt;</div></td></tr><tr><td style="font-weight:bold;vertical-align:top;">wsgi_input</td><td style="vertical-align:top;">:</td><td><div>&lt;socket._fileobject object at 0x7f4bce6b4750&gt;</div></td></tr><tr><td style="font-weight:bold;vertical-align:top;">wsgi_multiprocess</td><td style="vertical-align:top;">:</td><td><div>False</div></td></tr><tr><td style="font-weight:bold;vertical-align:top;">wsgi_multithread</td><td style="vertical-align:top;">:</td><td><div>True</div></td></tr><tr><td style="font-weight:bold;vertical-align:top;">wsgi_run_once</td><td style="vertical-align:top;">:</td><td><div>False</div></td></tr><tr><td style="font-weight:bold;vertical-align:top;">wsgi_url_scheme</td><td style="vertical-align:top;">:</td><td><div>http</div></td></tr><tr><td style="font-weight:bold;vertical-align:top;">wsgi_version</td><td style="vertical-align:top;">:</td><td><div><table><tr><td><div>1</div></td></tr><tr><td><div>0</div></td></tr></table></div></td></tr></table></div></td></tr><tr><td style="font-weight:bold;vertical-align:top;">extension</td><td style="vertical-align:top;">:</td><td><div>html</div></td></tr><tr><td style="font-weight:bold;vertical-align:top;">folder</td><td style="vertical-align:top;">:</td><td><div>/home/nyeinchan/web2py/applications/monitor/</div></td></tr><tr><td style="font-weight:bold;vertical-align:top;">function</td><td style="vertical-align:top;">:</td><td><div>rent</div></td></tr><tr><td style="font-weight:bold;vertical-align:top;">global_settings</td><td style="vertical-align:top;">:</td><td><div><table><tr><td style="font-weight:bold;vertical-align:top;">app_folders</td><td style="vertical-align:top;">:</td><td><div>set([&#x27;/home/nyeinchan/web2py/applications/monitor/&#x27;, &#x27;/home/nyeinchan/web2py/applications/admin/&#x27;, &#x27;/home/nyeinchan/web2py/applications/mrnyein/&#x27;])</div></td></tr><tr><td style="font-weight:bold;vertical-align:top;">applications_parent</td><td style="vertical-align:top;">:</td><td><div>/home/nyeinchan/web2py</div></td></tr><tr><td style="font-weight:bold;vertical-align:top;">cmd_args</td><td style="vertical-align:top;">:</td><td><div><table></table></div></td></tr><tr><td style="font-weight:bold;vertical-align:top;">cmd_options</td><td style="vertical-align:top;">:</td><td><div>&lt;Values at 0x7f4bf977b830: {&#x27;verbose&#x27;: False, &#x27;ip&#x27;: &#x27;127.0.0.1&#x27;, &#x27;debuglevel&#x27;: 30, &#x27;with_scheduler&#x27;: False, &#x27;shutdown_timeout&#x27;: 5, &#x27;taskbar&#x27;: False, &#x27;with_coverage&#x27;: False, &#x27;pid_filename&#x27;: &#x27;httpserver.pid&#x27;, &#x27;maxthreads&#x27;: None, &#x27;softcron&#x27;: False, &#x27;server_name&#x27;: &#x27;HTY-L-PC09DD2CU&#x27;, &#x27;bpython&#x27;: False, &#x27;nogui&#x27;: False, &#x27;port&#x27;: 8000, &#x27;print_errors&#x27;: False, &#x27;extcron&#x27;: False, &#x27;runcron&#x27;: False, &#x27;run_system_tests&#x27;: False, &#x27;test&#x27;: None, &#x27;folder&#x27;: &#x27;/home/nyeinchan/web2py&#x27;, &#x27;config&#x27;: &#x27;&#x27;, &#x27;minthreads&#x27;: None, &#x27;shell&#x27;: None, &#x27;run&#x27;: &#x27;&#x27;, &#x27;log_filename&#x27;: &#x27;httpserver.log&#x27;, &#x27;profiler_dir&#x27;: None, &#x27;args&#x27;: [&#x27;&#x27;], &#x27;socket_timeout&#x27;: 5, &#x27;ssl_ca_certificate&#x27;: None, &#x27;scheduler&#x27;: None, &#x27;interfaces&#x27;: None, &#x27;ssl_private_key&#x27;: &#x27;&#x27;, &#x27;gae&#x27;: None, &#x27;password&#x27;: &#x27;******&#x27;, &#x27;request_queue_size&#x27;: 5, &#x27;ssl_certificate&#x27;: &#x27;&#x27;, &#x27;cronjob&#x27;: False, &#x27;numthreads&#x27;: None, &#x27;quiet&#x27;: False, &#x27;import_models&#x27;: False, &#x27;timeout&#x27;: 10, &#x27;plain&#x27;: False, &#x27;nobanner&#x27;: False}&gt;</div></td></tr><tr><td style="font-weight:bold;vertical-align:top;">db_sessions</td><td style="vertical-align:top;">:</td><td><div>set([])</div></td></tr><tr><td style="font-weight:bold;vertical-align:top;">debugging</td><td style="vertical-align:top;">:</td><td><div>False</div></td></tr><tr><td style="font-weight:bold;vertical-align:top;">gluon_parent</td><td style="vertical-align:top;">:</td><td><div>/home/nyeinchan/web2py</div></td></tr><tr><td style="font-weight:bold;vertical-align:top;">is_jython</td><td style="vertical-align:top;">:</td><td><div>False</div></td></tr><tr><td style="font-weight:bold;vertical-align:top;">is_pypy</td><td style="vertical-align:top;">:</td><td><div>False</div></td></tr><tr><td style="font-weight:bold;vertical-align:top;">is_source</td><td style="vertical-align:top;">:</td><td><div>True</div></td></tr><tr><td style="font-weight:bold;vertical-align:top;">local_hosts</td><td style="vertical-align:top;">:</td><td><div><table><tr><td><div>HTY-L-PC09DD2CU</div></td></tr><tr><td><div>::1</div></td></tr><tr><td><div>127.0.1.1</div></td></tr><tr><td><div>::ffff:127.0.0.1</div></td></tr><tr><td><div>127.0.0.1</div></td></tr></table></div></td></tr><tr><td style="font-weight:bold;vertical-align:top;">web2py_version</td><td style="vertical-align:top;">:</td><td><div>2.14.6-stable+timestamp.2016.05.10.00.21.47</div></td></tr></table></div></td></tr><tr><td style="font-weight:bold;vertical-align:top;">is_https</td><td style="vertical-align:top;">:</td><td><div>False</div></td></tr><tr><td style="font-weight:bold;vertical-align:top;">is_local</td><td style="vertical-align:top;">:</td><td><div>True</div></td></tr><tr><td style="font-weight:bold;vertical-align:top;">is_restful</td><td style="vertical-align:top;">:</td><td><div>False</div></td></tr><tr><td style="font-weight:bold;vertical-align:top;">is_scheduler</td><td style="vertical-align:top;">:</td><td><div>False</div></td></tr><tr><td style="font-weight:bold;vertical-align:top;">is_shell</td><td style="vertical-align:top;">:</td><td><div>False</div></td></tr><tr><td style="font-weight:bold;vertical-align:top;">now</td><td style="vertical-align:top;">:</td><td><div>datetime.datetime(2016, 10, 2, 5, 32, 54, 782805)</div></td></tr><tr><td style="font-weight:bold;vertical-align:top;">uri_language</td><td style="vertical-align:top;">:</td><td><div>en-us</div></td></tr><tr><td style="font-weight:bold;vertical-align:top;">url</td><td style="vertical-align:top;">:</td><td><div>/rent/rent/new/rent</div></td></tr><tr><td style="font-weight:bold;vertical-align:top;">utcnow</td><td style="vertical-align:top;">:</td><td><div>datetime.datetime(2016, 10, 1, 23, 2, 54, 782853)</div></td></tr><tr><td style="font-weight:bold;vertical-align:top;">wsgi</td><td style="vertical-align:top;">:</td><td><div>&lt;gluon.main.LazyWSGI object at 0x7f4bf8053ed0&gt;</div></td></tr></table></div>'
tRp58
sS'frames'
p59
(lp60
(dp61
S'file'
p62
S'/home/nyeinchan/web2py/gluon/restricted.py'
p63
sS'dump'
p64
(dp65
S'environment'
p66
S"{'A': <class 'gluon.html.A'>, 'ANY_OF': <class 'gluon.validators.ANY_OF'>, 'ASSIGNJS': <function ASSIGNJS>, 'AppConfig': <function AppConfig>, 'Auth': <class 'gluon.tools.Auth'>, 'B': <class 'gluon.html.B'>, 'BEAUTIFY': <class 'gluon.html.BEAUTIFY'>, 'BODY': <class 'gluon.html.BODY'>, 'BR': <class 'gluon.html.BR'>, 'BUTTON': <class 'gluon.html.BUTTON'>, ...}"
p67
sS'ccode'
p68
S'<code object <module> at 0x7f4bce6b4ab0, file "/.../applications/monitor/models/dbsetup.py", line 1>'
p69
ssS'lnum'
p70
I227
sS'lines'
p71
(dp72
I224
S'            ccode = code'
p73
sI225
S'        else:'
p74
sI226
S'            ccode = compile2(code, layer)'
p75
sI227
S'        exec ccode in environment'
p76
sI228
S'    except HTTP:'
p77
sI229
S'        raise'
p78
sI230
S'    except RestrictedError:'
p79
sI231
S'        # do not encapsulate (obfuscate) the original RestrictedError'
p80
sI222
S'    try:'
p81
sI223
S'        if isinstance(code, types.CodeType):'
p82
ssS'call'
p83
S'(code="from datetime import datetime\\nfrom gluon.contrib...\\n\\t\\tdict(name=myconf.get(\'default_type.usr\'))\\n\\t])\\n", environment={\'A\': <class \'gluon.html.A\'>, \'ANY_OF\': <class \'gluon.validators.ANY_OF\'>, \'ASSIGNJS\': <function ASSIGNJS>, \'AppConfig\': <function AppConfig>, \'Auth\': <class \'gluon.tools.Auth\'>, \'B\': <class \'gluon.html.B\'>, \'BEAUTIFY\': <class \'gluon.html.BEAUTIFY\'>, \'BODY\': <class \'gluon.html.BODY\'>, \'BR\': <class \'gluon.html.BR\'>, \'BUTTON\': <class \'gluon.html.BUTTON\'>, ...}, layer=\'/home/nyeinchan/web2py/applications/monitor/models/dbsetup.py\')'
p84
sS'func'
p85
S'restricted'
p86
sa(dp87
g62
S'/home/nyeinchan/web2py/applications/monitor/models/dbsetup.py'
p88
sg64
(dp89
S'db.rent.receive_date'
p90
S'<pydal.objects.Field object>'
p91
sS'db.rent.is_received'
p92
S'<pydal.objects.Field object>'
p93
sS'db'
p94
S'<DAL uri="mysql:******@localhost/devicemonitor">'
p95
sS'Ture'
p96
S'undefined'
p97
sS'db.rent.receive_date.show_if'
p98
g97
sS'db.rent'
p99
S'<Table rent (id, employee_id, rent_date, device_...reated_on, created_by, modified_on, modified_by)>'
p100
ssg70
I267
sg71
(dp101
I262
S"\tField('modified_by', 'reference auth_user', update=auth.user_id,"
p102
sI263
S'\t\t\treadable=True, writable=False),'
p103
sI264
S''
sI265
S')'
sI266
S'db.rent.rent_date.represent= lambda x, row: x.strftime("%B %d, %Y")'
p104
sI267
S'db.rent.receive_date.show_if = (db.rent.is_received == Ture)'
p105
sI268
S'db.rent.employee_id.requires = IS_IN_DB(db(db.employee.is_active == True),'
p106
sI269
S"\t\t\t\t\t\t\t\t\tdb.employee.id, '%(name)s', sort=True)"
p107
sI270
S'db.rent.device_id.requires = IS_IN_DB(db(db.device.is_active == True),'
p108
sI271
S"\t\t\t\t\t\t\t\t\t\t  db.device.id, '%(name)s', sort=True)"
p109
ssg83
S'()'
p110
sg85
S'<module>'
p111
sasS'pyver'
p112
S'Python 2.7.12: /usr/bin/python (prefix: /usr)'
p113
sS'session'
p114
g57
(S's\xee\x08\x00\x00<div><table><tr><td style="font-weight:bold;vertical-align:top;">auth</td><td style="vertical-align:top;">:</td><td><div><table><tr><td style="font-weight:bold;vertical-align:top;">expiration</td><td style="vertical-align:top;">:</td><td><div>3600</div></td></tr><tr><td style="font-weight:bold;vertical-align:top;">hmac_key</td><td style="vertical-align:top;">:</td><td><div>f5b907a4-aec1-4a39-9567-4c2efe24b7d4</div></td></tr><tr><td style="font-weight:bold;vertical-align:top;">last_visit</td><td style="vertical-align:top;">:</td><td><div>datetime.datetime(2016, 10, 2, 5, 32, 54, 782805)</div></td></tr><tr><td style="font-weight:bold;vertical-align:top;">remember_me</td><td style="vertical-align:top;">:</td><td><div>False</div></td></tr><tr><td style="font-weight:bold;vertical-align:top;">user</td><td style="vertical-align:top;">:</td><td><div><table><tr><td style="font-weight:bold;vertical-align:top;">email</td><td style="vertical-align:top;">:</td><td><div>nyeinchan@coca-cola.com.mm</div></td></tr><tr><td style="font-weight:bold;vertical-align:top;">first_name</td><td style="vertical-align:top;">:</td><td><div>Nyein</div></td></tr><tr><td style="font-weight:bold;vertical-align:top;">id</td><td style="vertical-align:top;">:</td><td><div>2L</div></td></tr><tr><td style="font-weight:bold;vertical-align:top;">last_name</td><td style="vertical-align:top;">:</td><td><div>Chan</div></td></tr><tr><td style="font-weight:bold;vertical-align:top;">registration_id</td><td style="vertical-align:top;">:</td><td><div></div></td></tr><tr><td style="font-weight:bold;vertical-align:top;">registration_key</td><td style="vertical-align:top;">:</td><td><div></div></td></tr><tr><td style="font-weight:bold;vertical-align:top;">reset_password_key</td><td style="vertical-align:top;">:</td><td><div></div></td></tr></table></div></td></tr><tr><td style="font-weight:bold;vertical-align:top;">user_groups</td><td style="vertical-align:top;">:</td><td><div><table><tr><td style="font-weight:bold;vertical-align:top;">1</td><td style="vertical-align:top;">:</td><td><div>Admin</div></td></tr></table></div></td></tr></table></div></td></tr><tr><td style="font-weight:bold;vertical-align:top;">flash</td><td style="vertical-align:top;">:</td><td><div>None</div></td></tr></table></div>'
tRp115
sS'etype'
p116
S"<type 'exceptions.NameError'>"
p117
sS'date'
p118
S'Sun Oct  2 05:32:54 2016'
p119
sS'response'
p120
g57
(S'si\x17\x00\x00<div><table><tr><td style="font-weight:bold;vertical-align:top;">body</td><td style="vertical-align:top;">:</td><td><div>&lt;cStringIO.StringO object at 0x7f4bce6dcdc0&gt;</div></td></tr><tr><td style="font-weight:bold;vertical-align:top;">cookies</td><td style="vertical-align:top;">:</td><td><div><table><tr><td style="font-weight:bold;vertical-align:top;">session_id_monitor</td><td style="vertical-align:top;">:</td><td><div>127.0.0.1-9580b262-3717-4b53-a7f3-c3dcdeba75dc<table><tr><td style="font-weight:bold;vertical-align:top;">comment</td><td style="vertical-align:top;">:</td><td><div></div></td></tr><tr><td style="font-weight:bold;vertical-align:top;">domain</td><td style="vertical-align:top;">:</td><td><div></div></td></tr><tr><td style="font-weight:bold;vertical-align:top;">expires</td><td style="vertical-align:top;">:</td><td><div></div></td></tr><tr><td style="font-weight:bold;vertical-align:top;">httponly</td><td style="vertical-align:top;">:</td><td><div></div></td></tr><tr><td style="font-weight:bold;vertical-align:top;">max-age</td><td style="vertical-align:top;">:</td><td><div></div></td></tr><tr><td style="font-weight:bold;vertical-align:top;">path</td><td style="vertical-align:top;">:</td><td><div>/</div></td></tr><tr><td style="font-weight:bold;vertical-align:top;">secure</td><td style="vertical-align:top;">:</td><td><div></div></td></tr><tr><td style="font-weight:bold;vertical-align:top;">version</td><td style="vertical-align:top;">:</td><td><div></div></td></tr></table></div></td></tr></table></div></td></tr><tr><td style="font-weight:bold;vertical-align:top;">delimiters</td><td style="vertical-align:top;">:</td><td><div><table><tr><td><div>{{</div></td></tr><tr><td><div>}}</div></td></tr></table></div></td></tr><tr><td style="font-weight:bold;vertical-align:top;">files</td><td style="vertical-align:top;">:</td><td><div><table></table></div></td></tr><tr><td style="font-weight:bold;vertical-align:top;">flash</td><td style="vertical-align:top;">:</td><td><div></div></td></tr><tr><td style="font-weight:bold;vertical-align:top;">form_label_separator</td><td style="vertical-align:top;">:</td><td><div></div></td></tr><tr><td style="font-weight:bold;vertical-align:top;">formstyle</td><td style="vertical-align:top;">:</td><td><div>bootstrap3_stacked</div></td></tr><tr><td style="font-weight:bold;vertical-align:top;">generic_patterns</td><td style="vertical-align:top;">:</td><td><div><table><tr><td><div>*</div></td></tr></table></div></td></tr><tr><td style="font-weight:bold;vertical-align:top;">headers</td><td style="vertical-align:top;">:</td><td><div><table><tr><td style="font-weight:bold;vertical-align:top;">X-Powered-By</td><td style="vertical-align:top;">:</td><td><div>web2py</div></td></tr></table></div></td></tr><tr><td style="font-weight:bold;vertical-align:top;">menu</td><td style="vertical-align:top;">:</td><td><div><table></table></div></td></tr><tr><td style="font-weight:bold;vertical-align:top;">meta</td><td style="vertical-align:top;">:</td><td><div><table></table></div></td></tr><tr><td style="font-weight:bold;vertical-align:top;">models_to_run</td><td style="vertical-align:top;">:</td><td><div><table><tr><td><div>^\\w+\\.py$</div></td></tr><tr><td><div>^default/\\w+\\.py$</div></td></tr><tr><td><div>^default/rent/\\w+\\.py$</div></td></tr></table></div></td></tr><tr><td style="font-weight:bold;vertical-align:top;">postprocessing</td><td style="vertical-align:top;">:</td><td><div><table></table></div></td></tr><tr><td style="font-weight:bold;vertical-align:top;">session_client</td><td style="vertical-align:top;">:</td><td><div>127.0.0.1</div></td></tr><tr><td style="font-weight:bold;vertical-align:top;">session_cookie_compression_level</td><td style="vertical-align:top;">:</td><td><div>None</div></td></tr><tr><td style="font-weight:bold;vertical-align:top;">session_cookie_expires</td><td style="vertical-align:top;">:</td><td><div>None</div></td></tr><tr><td style="font-weight:bold;vertical-align:top;">session_data_name</td><td style="vertical-align:top;">:</td><td><div>session_data_monitor</div></td></tr><tr><td style="font-weight:bold;vertical-align:top;">session_file</td><td style="vertical-align:top;">:</td><td><div>&lt;open file &#x27;/home/nyeinchan/web2py/applications/monitor/sessions/19c/1f5/127.0.0.1-9580b262-3717-4b53-a7f3-c3dcdeba75dc&#x27;, mode &#x27;rb+&#x27; at 0x7f4bf94919c0&gt;</div></td></tr><tr><td style="font-weight:bold;vertical-align:top;">session_filename</td><td style="vertical-align:top;">:</td><td><div>/home/nyeinchan/web2py/applications/monitor/sessions/127.0.0.1-9580b262-3717-4b53-a7f3-c3dcdeba75dc</div></td></tr><tr><td style="font-weight:bold;vertical-align:top;">session_hash</td><td style="vertical-align:top;">:</td><td><div>38d19d3006cff2657a210bc767883aed</div></td></tr><tr><td style="font-weight:bold;vertical-align:top;">session_id</td><td style="vertical-align:top;">:</td><td><div>127.0.0.1-9580b262-3717-4b53-a7f3-c3dcdeba75dc</div></td></tr><tr><td style="font-weight:bold;vertical-align:top;">session_id_name</td><td style="vertical-align:top;">:</td><td><div>session_id_monitor</div></td></tr><tr><td style="font-weight:bold;vertical-align:top;">session_locked</td><td style="vertical-align:top;">:</td><td><div>True</div></td></tr><tr><td style="font-weight:bold;vertical-align:top;">session_masterapp</td><td style="vertical-align:top;">:</td><td><div>monitor</div></td></tr><tr><td style="font-weight:bold;vertical-align:top;">session_new</td><td style="vertical-align:top;">:</td><td><div>False</div></td></tr><tr><td style="font-weight:bold;vertical-align:top;">session_storage_type</td><td style="vertical-align:top;">:</td><td><div>file</div></td></tr><tr><td style="font-weight:bold;vertical-align:top;">status</td><td style="vertical-align:top;">:</td><td><div>200</div></td></tr><tr><td style="font-weight:bold;vertical-align:top;">view</td><td style="vertical-align:top;">:</td><td><div>default/rent.html</div></td></tr></table></div>'
tRp121
sS'locals'
p122
(dp123
S'Service'
p124
S"<class 'gluon.tools.Service'>"
p125
sS'OBJECT'
p126
S"<class 'gluon.html.OBJECT'>"
p127
sS'SQLDB'
p128
S"<class 'pydal.base.DAL'>"
p129
sg114
S"<Storage {'auth': <Storage {'remember_me': False...ature=8c4abc505f956204c69c697f684abae1d1ebf64b'}>"
p130
sS'LINK'
p131
S"<class 'gluon.html.LINK'>"
p132
sS'BR'
p133
S"<class 'gluon.html.BR'>"
p134
sS'local_import'
p135
S'<function <lambda>>'
p136
sS'OPTGROUP'
p137
S"<class 'gluon.html.OPTGROUP'>"
p138
sS'LI'
p139
S"<class 'gluon.html.LI'>"
p140
sS'PRE'
p141
S"<class 'gluon.html.PRE'>"
p142
sS'IS_INT_IN_RANGE'
p143
S"<class 'gluon.validators.IS_INT_IN_RANGE'>"
p144
sS'IS_LOWER'
p145
S"<class 'gluon.validators.IS_LOWER'>"
p146
sS'IS_STRONG'
p147
S"<class 'gluon.validators.IS_STRONG'>"
p148
sS'cache'
p149
S'<gluon.cache.Cache object>'
p150
sS'IS_IN_DB'
p151
S"<class 'gluon.validators.IS_IN_DB'>"
p152
sS'TAG'
p153
S'<gluon.html.__TAG__ object>'
p154
sS'SQLField'
p155
S"<class 'pydal.objects.Field'>"
p156
sS'mail'
p157
S'<gluon.tools.Mail object>'
p158
sS'department_id'
p159
S"<Row {'general_table': <Set (general_table.config_type = 7)>, 'id': 7L}>"
p160
sS'BODY'
p161
S"<class 'gluon.html.BODY'>"
p162
sS'IS_DATE_IN_RANGE'
p163
S"<class 'gluon.validators.IS_DATE_IN_RANGE'>"
p164
sS'operator_id'
p165
S"<Row {'general_table': <Set (general_table.config_type = 5)>, 'id': 5L}>"
p166
sS'TH'
p167
S"<class 'gluon.html.TH'>"
p168
sS'URL'
p169
S'<function URL>'
p170
sS'__file__'
p171
S"'/home/nyeinchan/web2py/applications/monitor/models/dbsetup.py'"
p172
sS'db'
p173
S'<DAL uri="mysql:******@localhost/devicemonitor">'
p174
sS'auth'
p175
S'<gluon.tools.Auth object>'
p176
sS'P'
S"<class 'gluon.html.P'>"
p177
sS'TFOOT'
p178
S"<class 'gluon.html.TFOOT'>"
p179
sS'XHTML'
p180
S"<class 'gluon.html.XHTML'>"
p181
sS'datetime'
p182
S"<type 'datetime.datetime'>"
p183
sS'ON'
p184
S'True'
p185
sS'OL'
p186
S"<class 'gluon.html.OL'>"
p187
sS'TEXTAREA'
p188
S"<class 'gluon.html.TEXTAREA'>"
p189
sS'MENU'
p190
S"<class 'gluon.html.MENU'>"
p191
sS'LOAD'
p192
S'<function LOAD>'
p193
sS'CODE'
p194
S"<class 'gluon.html.CODE'>"
p195
sS'HTTP'
p196
S"<class 'gluon.http.HTTP'>"
p197
sS'HR'
p198
S"<class 'gluon.html.HR'>"
p199
sS'IS_DATETIME'
p200
S"<class 'gluon.validators.IS_DATETIME'>"
p201
sS'HEAD'
p202
S"<class 'gluon.html.HEAD'>"
p203
sS'LABEL'
p204
S"<class 'gluon.html.LABEL'>"
p205
sS'CLEANUP'
p206
S"<class 'gluon.validators.CLEANUP'>"
p207
sS'plugins'
p208
S'<gluon.tools.PluginManager object>'
p209
sS'SELECT'
p210
S"<class 'gluon.html.SELECT'>"
p211
sS'CENTER'
p212
S"<class 'gluon.html.CENTER'>"
p213
sS'Crud'
p214
S"<class 'gluon.tools.Crud'>"
p215
sS'Auth'
p216
S"<class 'gluon.tools.Auth'>"
p217
sS'__builtins__'
p218
S"{'ArithmeticError': <type 'exceptions.ArithmeticError'>, 'AssertionError': <type 'exceptions.AssertionError'>, 'AttributeError': <type 'exceptions.AttributeError'>, 'BaseException': <type 'exceptions.BaseException'>, 'BufferError': <type 'exceptions.BufferError'>, 'BytesWarning': <type 'exceptions.BytesWarning'>, 'DeprecationWarning': <type 'exceptions.DeprecationWarning'>, 'EOFError': <type 'exceptions.EOFError'>, 'Ellipsis': Ellipsis, 'EnvironmentError': <type 'exceptions.EnvironmentError'>, ...}"
p219
sS'os_id'
p220
S"<Row {'general_table': <Set (general_table.config_type = 11)>, 'id': 11L}>"
p221
sS'SQLFORM'
p222
S"<class 'gluon.sqlhtml.SQLFORM'>"
p223
sS'EM'
p224
S"<class 'gluon.html.EM'>"
p225
sS'redirect'
p226
S'<function redirect>'
p227
sS'FIELDSET'
p228
S"<class 'gluon.html.FIELDSET'>"
p229
sS'IS_EQUAL_TO'
p230
S"<class 'gluon.validators.IS_EQUAL_TO'>"
p231
sS'embed64'
p232
S'<function embed64>'
p233
sS'IS_LIST_OF'
p234
S"<class 'gluon.validators.IS_LIST_OF'>"
p235
sS'__name__'
p236
S"'__restricted__'"
p237
sS'EMBED'
p238
S"<class 'gluon.html.EMBED'>"
p239
sS'FORM'
p240
S"<class 'gluon.html.FORM'>"
p241
sS'myconf'
p242
S"{'forms': {'formstyle': 'bootstrap3_stacked', 's...nse', 'pln': 'Plan', 'oss': 'OS', 'usr': 'User'}}"
p243
sS'H2'
p244
S"<class 'gluon.html.H2'>"
p245
sS'H3'
p246
S"<class 'gluon.html.H3'>"
p247
sS'AppConfig'
p248
S'<function AppConfig>'
p249
sS'H1'
p250
S"<class 'gluon.html.H1'>"
p251
sS'H6'
p252
S"<class 'gluon.html.H6'>"
p253
sS'H4'
p254
S"<class 'gluon.html.H4'>"
p255
sS'H5'
p256
S"<class 'gluon.html.H5'>"
p257
sS'UL'
p258
S"<class 'gluon.html.UL'>"
p259
sS'IS_UPPER'
p260
S"<class 'gluon.validators.IS_UPPER'>"
p261
sS'xmlescape'
p262
S'<function xmlescape>'
p263
sS'IS_TIME'
p264
S"<class 'gluon.validators.IS_TIME'>"
p265
sS'OPTION'
p266
S"<class 'gluon.html.OPTION'>"
p267
sS'TITLE'
p268
S"<class 'gluon.html.TITLE'>"
p269
sS'CRYPT'
p270
S"<class 'gluon.validators.CRYPT'>"
p271
sS'IS_EMPTY_OR'
p272
S"<class 'gluon.validators.IS_EMPTY_OR'>"
p273
sS'MARKMIN'
p274
S"<class 'gluon.html.MARKMIN'>"
p275
sS'INPUT'
p276
S"<class 'gluon.html.INPUT'>"
p277
sS'application_id'
p278
S"<Row {'general_table': <Set (general_table.config_type = 6)>, 'id': 6L}>"
p279
sS'STRONG'
p280
S"<class 'gluon.html.STRONG'>"
p281
sS'COL'
p282
S"<class 'gluon.html.COL'>"
p283
sS'plan_id'
p284
S"''"
p285
sS'service'
p286
S'<gluon.tools.Service object>'
p287
sS'SCRIPT'
p288
S"<class 'gluon.html.SCRIPT'>"
p289
sS'TABLE'
p290
S"<class 'gluon.html.TABLE'>"
p291
sS'THEAD'
p292
S"<class 'gluon.html.THEAD'>"
p293
sS'IS_IPV4'
p294
S"<class 'gluon.validators.IS_IPV4'>"
p295
sS'IS_LENGTH'
p296
S"<class 'gluon.validators.IS_LENGTH'>"
p297
sS'IS_IPV6'
p298
S"<class 'gluon.validators.IS_IPV6'>"
p299
sS'XML'
p300
S"<class 'gluon.html.XML'>"
p301
sS'B'
S"<class 'gluon.html.B'>"
p302
sS'IMG'
p303
S"<class 'gluon.html.IMG'>"
p304
sS'SQLTABLE'
p305
S"<class 'gluon.sqlhtml.SQLTABLE'>"
p306
sS'IS_MATCH'
p307
S"<class 'gluon.validators.IS_MATCH'>"
p308
sS'IS_ALPHANUMERIC'
p309
S"<class 'gluon.validators.IS_ALPHANUMERIC'>"
p310
sS'license_id'
p311
S"<Row {'general_table': <Set (general_table.config_type = 8)>, 'id': 8L}>"
p312
sS'SPAN'
p313
S"<class 'gluon.html.SPAN'>"
p314
sS'IS_JSON'
p315
S"<class 'gluon.validators.IS_JSON'>"
p316
sS'IS_IPADDRESS'
p317
S"<class 'gluon.validators.IS_IPADDRESS'>"
p318
sS'IS_SLUG'
p319
S"<class 'gluon.validators.IS_SLUG'>"
p320
sS'BEAUTIFY'
p321
S"<class 'gluon.html.BEAUTIFY'>"
p322
sS'META'
p323
S"<class 'gluon.html.META'>"
p324
sS'BUTTON'
p325
S"<class 'gluon.html.BUTTON'>"
p326
sS'IS_DATE'
p327
S"<class 'gluon.validators.IS_DATE'>"
p328
sS'IS_EMAIL'
p329
S"<class 'gluon.validators.IS_EMAIL'>"
p330
sS'IS_NOT_EMPTY'
p331
S"<class 'gluon.validators.IS_NOT_EMPTY'>"
p332
sS'IS_FLOAT_IN_RANGE'
p333
S"<class 'gluon.validators.IS_FLOAT_IN_RANGE'>"
p334
sS'TBODY'
p335
S"<class 'gluon.html.TBODY'>"
p336
sS'l_code'
p337
S'<Rows (2)>'
p338
sS'CAT'
p339
S"<class 'gluon.html.CAT'>"
p340
sS'Field'
p341
S"<class 'pydal.objects.Field'>"
p342
sS'IS_LIST_OF_EMAILS'
p343
S"<class 'gluon.validators.IS_LIST_OF_EMAILS'>"
p344
sS'LEGEND'
p345
S"<class 'gluon.html.LEGEND'>"
p346
sS'DIV'
p347
S"<class 'gluon.html.DIV'>"
p348
sS'location_id'
p349
S"<Row {'general_table': <Set (general_table.config_type = 3)>, 'id': 3L}>"
p350
sS'id'
p351
S"<Row {'general_table': <Set (general_table.config_type = 11)>, 'id': 11L}>"
p352
sS'COLGROUP'
p353
S"<class 'gluon.html.COLGROUP'>"
p354
sS'DAL'
p355
S"<class 'pydal.base.DAL'>"
p356
sS'ASSIGNJS'
p357
S'<function ASSIGNJS>'
p358
sS'TR'
p359
S"<class 'gluon.html.TR'>"
p360
sS'__package__'
p361
S'None'
p362
sS'IFRAME'
p363
S"<class 'gluon.html.IFRAME'>"
p364
sS'TD'
p365
S"<class 'gluon.html.TD'>"
p366
sS'PluginManager'
p367
S"<class 'gluon.tools.PluginManager'>"
p368
sS'IS_URL'
p369
S"<class 'gluon.validators.IS_URL'>"
p370
sS'A'
S"<class 'gluon.html.A'>"
p371
sS'STYLE'
p372
S"<class 'gluon.html.STYLE'>"
p373
sS'IS_DATETIME_IN_RANGE'
p374
S"<class 'gluon.validators.IS_DATETIME_IN_RANGE'>"
p375
sS'HTML'
p376
S"<class 'gluon.html.HTML'>"
p377
sS'IS_IMAGE'
p378
S"<class 'gluon.validators.IS_IMAGE'>"
p379
sS'I'
S"<class 'gluon.html.I'>"
p380
sS'crud'
p381
S'<gluon.tools.Crud object>'
p382
sS'IS_NOT_IN_DB'
p383
S"<class 'gluon.validators.IS_NOT_IN_DB'>"
p384
sS'd_code'
p385
S'<Rows (5)>'
p386
sg120
S"<Storage {'body': <cStringIO.StringO object at 0...at 0x7f4bf8128230>, 'view': 'default/rent.html'}>"
p387
sS'device_id'
p388
S"<Row {'general_table': <Set (general_table.config_type = 1)>, 'id': 1L}>"
p389
sS'ANY_OF'
p390
S"<class 'gluon.validators.ANY_OF'>"
p391
sS'IS_NULL_OR'
p392
S"<class 'gluon.validators.IS_EMPTY_OR'>"
p393
sS'user_id'
p394
S"<Row {'general_table': <Set (general_table.config_type = 9)>, 'id': 9L}>"
p395
sg56
S"<Storage {'_vars': None, 'function': 'rent', 'co... '/home/nyeinchan/web2py/applications/monitor/'}>"
p396
sS'IS_EXPR'
p397
S"<class 'gluon.validators.IS_EXPR'>"
p398
sS'IS_IN_SET'
p399
S"<class 'gluon.validators.IS_IN_SET'>"
p400
sS'IS_UPLOAD_FILENAME'
p401
S"<class 'gluon.validators.IS_UPLOAD_FILENAME'>"
p402
sS'IS_DECIMAL_IN_RANGE'
p403
S"<class 'gluon.validators.IS_DECIMAL_IN_RANGE'>"
p404
sS'TT'
p405
S"<class 'gluon.html.TT'>"
p406
sS'T'
S'<gluon.languages.translator object>'
p407
sssS'traceback'
p408
S'Traceback (most recent call last):\n  File "/home/nyeinchan/web2py/gluon/restricted.py", line 227, in restricted\n    exec ccode in environment\n  File "/home/nyeinchan/web2py/applications/monitor/models/dbsetup.py", line 267, in <module>\n    db.rent.receive_date.show_if = (db.rent.is_received == Ture)\nNameError: name \'Ture\' is not defined\n'
p409
s.