(dp1
S'output'
p2
S"<type 'exceptions.NameError'> global name 'accessories_grid' is not defined"
p3
sS'layer'
p4
S'/home/nyeinchan/web2py/applications/monitor/controllers/default.py'
p5
sS'code'
p6
S'# -*- coding: utf-8 -*-\n# this file is released under public domain and you can use without limitations\n\n#########################################################################\n## This is a sample controller\n## - index is the default action of any application\n## - user is required for authentication and authorization\n## - download is for downloading files uploaded in the db (does streaming)\n#########################################################################\nfrom gluon.contrib.appconfig import AppConfig\nfrom gluon.serializers import json\nfrom gluon.tools import geocode\n\nmyconf = AppConfig(reload=True)\n\n@auth.requires_login()\ndef index():\n    """\n    example action using the internationalization operator T and flash\n    rendered by views/default/index.html or views/generic.html\n\n    if you need a simple wiki simply replace the two lines below with:\n    return auth.wiki()\n    """\n    # current_page = request.vars.page or None\n    # print request.vars\n    # response.title += \' | \' + T(\'Posts\')\n    # if not current_page:\n    #     redirect(URL(\'index\'))\n    # else:\n    #     page = int(current_page)\n\n    response.flash = T("Welcome")\n    return dict(message=T(\'Welcome to web2py!\'))\n\n\ndef about():\n    return dict(message="This is about")\n\nlatitude = longitude = \'\'\ndef getGPS():\n    form=SQLFORM.factory(Field(\'search\'), _class=\'form-search\')\n    form.custom.widget.search[\'_class\'] = \'input-long search-query\'\n    form.custom.submit[\'_value\'] = \'Search\'\n    form.custom.submit[\'_class\'] = \'btn\'\n    if form.accepts(request):\n        address=form.vars.search\n        (latitude, longitude) = geocode(address)\n    else:\n        (latitude, longitude) = (\'\',\'\')\n    return dict(form=form, latitude=latitude, longitude=longitude)\n\ndef brand():\n    grid = SQLFORM.smartgrid(\n        db.brand,\n        paginate=10,\n        csv=False,\n        details=False,\n        orderby = db.brand.name,\n        linked_tables=False\n    )\n    response.moduleTitle = \'Brand\'\n    return dict(form=grid)\n    ##data = db().select(db.brand.ALL, orderby=~db.brand.id)\n    ##return dict(form=SQLFORM(db.brand).process(), data=data)\n\ndef model():\n    grid = SQLFORM.smartgrid(\n        db.model,\n        paginate=10,\n        csv=False,\n        details=False,\n        orderby=[db.model.brand, db.model.name],\n        linked_tables=False\n    )\n\n    # grid=SQLFORM(db.model).process()\n    response.moduleTitle = \'Model\'\n    return dict(form=grid)\n\ndef general_table():\n    grid = SQLFORM.smartgrid(\n        db.general_table,\n        paginate=10,\n        csv=False,\n        details=False,\n        orderby=[db.general_table.config_type, db.general_table.name],\n        linked_tables=False\n    )\n\n    response.moduleTitle = \'Genral Set up\'\n    return dict(form=grid)\n\ndef sim():\n    grid = SQLFORM.smartgrid(\n        db.sim,\n        paginate=10,\n        csv=False,\n        details=False,\n        orderby=[db.sim.brand_type, db.sim.plan_type, db.sim.sim_number],\n        linked_tables=False\n    )\n    response.moduleTitle = \'SIM Card\'\n    return dict(form=grid)\n\n\ndef room():\n    grid = SQLFORM.smartgrid(\n        db.room,\n        paginate=10,\n        csv=False,\n        details=False,\n        orderby=[db.room.config, db.sim.name],\n        linked_tables=False\n    )\n    response.moduleTitle = \'Room\'\n    return dict(form=grid, lcode=json(l_code))\n\ndef apps():\n    grid = SQLFORM.smartgrid(\n        db.apps,\n        paginate=10,\n        csv=False,\n        details=False,\n        orderby=[db.apps.app_type, db.apps.name],\n        linked_tables=False\n    )\n    response.moduleTitle = \'Application\'\n    return dict(form=grid)\n\ndef employee():\n    grid = SQLFORM.smartgrid(\n        db.employee,\n        paginate=10,\n        csv=False,\n        details=False,\n        orderby=[db.employee.department, db.employee.name],\n        linked_tables=False\n    )\n\n    response.moduleTitle = \'Brand\'\n    return dict(form=grid)\n\ndef email_account():\n    grid = SQLFORM.smartgrid(\n        db.email_account,\n        paginate=10,\n        csv=False,\n        details=False,\n        orderby=[db.email_account.user_type, db.email_account.username],\n        linked_tables=False\n    )\n\n    response.moduleTitle = \'Brand\'\n    return dict(form=grid)\n\ndef device():\n    grid = SQLFORM.smartgrid(\n        db.device,\n        paginate=10,\n        csv=False,\n        details=False,\n        orderby=[db.device.device_type, db.device.name],\n        linked_tables=False\n    )\n    response.moduleTitle = \'Device\'\n    return dict(form=grid, dcode=json(d_code))\n\ndef register():\n    form=SQLFORM.factory(db.client,db.address)\n    if form.process().accepted:\n        id = db.client.insert(**db.client._filter_fields(form.vars))\n        form.vars.client=id\n        id = db.address.insert(**db.address._filter_fields(form.vars))\n        response.flash=\'Thanks for filling the form\'\n    response.moduleTitle = \'Register\'\n    return dict(form=form)\n\ndef rent():\n    grid = SQLFORM.smartgrid(\n        db.rent,\n        paginate=10,\n        csv=False,\n        details=False,\n        orderby=~db.rent.rent_date|db.rent.employee_id,\n        linked_tables=False\n    )\n\n    response.moduleTitle = \'Rent\'\n    return dict(form=grid)\n\ndef assign():\n\t\n\tdef redirectToDetail(form):\n\t\tassign_id = form.vars.id\n\t\tredirect(URL(\'assigndetail\', vars=dict(assign_id=assign_id)))\n\tform=SQLFORM.grid(db.assign,\n\t\toncreate=redirectToDetail,\n\t\tonupdate=redirectToDetail,\n\t\tdetails=False,\n\t\tpaginate=15,\n\t\torderby=~db.assign.id|db.assign.employee_id)\n\tresponse.moduleTitle = \'Assign\'\n\treturn(dict(form=form))\n\ndef assigndetail():\n\tassign_id=request.vars.assign_id\n\tif type(assign_id) == list:\n\t\tassign_id=assign_id[-1]\n\tdb.assign_device.assign_id.default = assign_id\n\tdb.assign_app.assign_id.default = assign_id\n\tdb.assign_accessories.default = assign_id\n\tform_device = SQLFORM(db.assign_device)\n\tform_app = SQLFORM(db.assign_app)\n\tform_accessories = SQLFORM(db.assign_accessories)\n\tform_device.add_button(\'Back\', URL(\'default\', \'assign\'))\n\tform_app.add_button(\'Back\', URL(\'default\', \'assign\'))\n\tform_accessories.add_button(\'Back\',URL(\'default\', \'assign\'))\n\tif form_device.process().accepted:\n\t\tredirect(URL(\'assigndetail\', vars=dict(assign_id=assign_id)))\n\tif form_app.process().accepted:\n\t\tredirect(URL(\'assigndetail\', vars=dict(assign_id=assign_id)))\n\tif form_accessories.process().accepted:\n\t\tredirect(URL(\'assigndetail\', vars=dict(assign_id=assign_id)))\n\tresponse.moduleTitle = \'Assign Detail\'\n\treturn dict(form_device=form_device, form_app=form_app, form_accessories=form_accessories, assign_id=assign_id)\n\t\ndef assigndetaillist():\n\tassign_id = request.vars.assign_id\n\tdevice_where = (db.assign_device.assign_id == assign_id)\n\tdevice_grid = SQLFORM.grid(device_where, create=False, editable=False, details=False)\n\tapp_where = (db.assign_app.assign_id == assign_id)\n\tapp_grid = SQLFORM.grid(app_where, create=False, editable=False, details=False)\n\taccessories_where = (db.assign_accessories.assign_id == assign_id)\n\taccessories_gird = SQLFORM.grid(accessories_where, create=False, editable=False)\n\n\treturn dict(device_grid=device_grid, app_grid=app_grid, accessories_grid=accessories_grid)\n\ndef user():\n    """\n    exposes:\n    http://..../[app]/default/user/login\n    http://..../[app]/default/user/logout\n    http://..../[app]/default/user/register\n    http://..../[app]/default/user/profile\n    http://..../[app]/default/user/retrieve_password\n    http://..../[app]/default/user/change_password\n    http://..../[app]/default/user/bulk_register\n    use @auth.requires_login()\n        @auth.requires_membership(\'group name\')\n        @auth.requires_permission(\'read\',\'table name\',record_id)\n    to decorate functions that need access control\n    also notice there is http://..../[app]/appadmin/manage/auth to allow administrator to manage users\n    """\n    return dict(form=auth())\n\n\n\n\n@cache.action()\ndef download():\n    """\n    allows downloading of uploaded files\n    http://..../[app]/default/download/[filename]\n    """\n    return response.download(request, db)\n\n\ndef call():\n    """\n    exposes services. for example:\n    http://..../[app]/default/call/jsonrpc\n    decorate with @services.jsonrpc the functions to expose\n    supports xml, json, xmlrpc, jsonrpc, amfrpc, rss, csv\n    """\n    return service()\n\nresponse._vars=response._caller(assigndetaillist)\n'
p7
sS'snapshot'
p8
(dp9
sS'traceback'
p10
S'Traceback (most recent call last):\n  File "/home/nyeinchan/web2py/gluon/restricted.py", line 227, in restricted\n    exec ccode in environment\n  File "/home/nyeinchan/web2py/applications/monitor/controllers/default.py", line 278, in <module>\n  File "/home/nyeinchan/web2py/gluon/globals.py", line 417, in <lambda>\n    self._caller = lambda f: f()\n  File "/home/nyeinchan/web2py/applications/monitor/controllers/default.py", line 237, in assigndetaillist\n    return dict(device_grid=device_grid, app_grid=app_grid, accessories_grid=accessories_grid)\nNameError: global name \'accessories_grid\' is not defined\n'
p11
s.